Certificate:
    Data:
        Version: 3 (0x2)
        Serial Number: 0 (0x0)
    Signature Algorithm: sha1WithRSAEncryption
        Issuer: C=KR, ST=Seoul, O=Samsung, OU=Tizen Test, CN=Test Root CA/emailAddress=tt@gmail.com
        Validity
            Not Before: Jun 18 08:10:51 2014 GMT
            Not After : Jun 18 08:10:51 2015 GMT
        Subject: C=KR, ST=Seoul, O=Samsung, OU=Tizen Test, CN=Test Root CA/emailAddress=tt@gmail.com
        Subject Public Key Info:
            Public Key Algorithm: rsaEncryption
                Public-Key: (1024 bit)
                Modulus:
                    00:a3:a6:5e:82:c4:3d:85:27:0c:d7:20:fb:7a:3b:
                    f8:e3:15:13:24:38:d3:95:c1:b0:78:78:7b:e8:89:
                    b6:db:1e:b2:02:58:cc:db:e7:4a:76:3d:c4:21:51:
                    ad:d0:10:37:ea:a7:59:16:5f:16:3b:1c:d0:19:c0:
                    33:41:8e:c6:14:e5:d0:56:88:38:52:3a:87:33:19:
                    96:c0:0c:79:8d:0c:81:cc:88:9e:02:3e:07:67:69:
                    6a:b8:f0:62:ca:22:1e:1c:0a:3a:b0:24:96:b3:19:
                    e1:ec:fa:af:59:a0:32:a4:f6:55:12:a3:89:de:06:
                    b9:ad:7c:83:09:c8:f3:43:c1
                Exponent: 65537 (0x10001)
        X509v3 extensions:
            X509v3 Subject Key Identifier: 
                64:1E:4F:4B:9E:18:2F:BC:E2:30:C4:73:A6:6B:9E:05:1A:DF:12:08
            X509v3 Authority Key Identifier: 
                keyid:64:1E:4F:4B:9E:18:2F:BC:E2:30:C4:73:A6:6B:9E:05:1A:DF:12:08

            X509v3 Basic Constraints: 
                CA:TRUE
            Authority Information Access: 
                OCSP - URI:http://127.0.0.1:8888
                CA Issuers - URI:http://SVRSecure-G3-aia.verisign.com/SVRSecureG3.cer

    Signature Algorithm: sha1WithRSAEncryption
         32:44:95:d3:65:cc:11:0a:44:4d:19:94:02:3b:cb:71:1e:fa:
         e6:82:ff:2f:43:09:d9:64:5e:92:c3:26:3f:06:bc:b4:7e:69:
         5e:86:d3:79:d8:d2:e3:8c:f1:06:ea:ef:58:15:87:f3:4a:48:
         d0:95:54:74:a9:f4:36:98:db:37:77:a0:0a:16:53:9d:64:e4:
         fa:72:e1:08:66:e2:9e:a4:36:f6:4f:1e:49:25:b2:0d:e8:dd:
         df:13:f9:55:49:6f:3c:2b:d6:92:08:5d:a7:d7:98:18:4d:25:
         66:0f:48:ee:1e:e2:c0:a1:69:c8:89:c6:9a:f9:26:de:d9:3b:
         23:01
-----BEGIN CERTIFICATE-----
MIIDLTCCApagAwIBAgIBADANBgkqhkiG9w0BAQUFADB4MQswCQYDVQQGEwJLUjEO
MAwGA1UECAwFU2VvdWwxEDAOBgNVBAoMB1NhbXN1bmcxEzARBgNVBAsMClRpemVu
IFRlc3QxFTATBgNVBAMMDFRlc3QgUm9vdCBDQTEbMBkGCSqGSIb3DQEJARYMdHRA
Z21haWwuY29tMB4XDTE0MDYxODA4MTA1MVoXDTE1MDYxODA4MTA1MVoweDELMAkG
A1UEBhMCS1IxDjAMBgNVBAgMBVNlb3VsMRAwDgYDVQQKDAdTYW1zdW5nMRMwEQYD
VQQLDApUaXplbiBUZXN0MRUwEwYDVQQDDAxUZXN0IFJvb3QgQ0ExGzAZBgkqhkiG
9w0BCQEWDHR0QGdtYWlsLmNvbTCBnzANBgkqhkiG9w0BAQEFAAOBjQAwgYkCgYEA
o6ZegsQ9hScM1yD7ejv44xUTJDjTlcGweHh76Im22x6yAljM2+dKdj3EIVGt0BA3
6qdZFl8WOxzQGcAzQY7GFOXQVog4UjqHMxmWwAx5jQyBzIieAj4HZ2lquPBiyiIe
HAo6sCSWsxnh7PqvWaAypPZVEqOJ3ga5rXyDCcjzQ8ECAwEAAaOBxjCBwzAdBgNV
HQ4EFgQUZB5PS54YL7ziMMRzpmueBRrfEggwHwYDVR0jBBgwFoAUZB5PS54YL7zi
MMRzpmueBRrfEggwDAYDVR0TBAUwAwEB/zBzBggrBgEFBQcBAQRnMGUwIQYIKwYB
BQUHMAGGFWh0dHA6Ly8xMjcuMC4wLjE6ODg4ODBABggrBgEFBQcwAoY0aHR0cDov
L1NWUlNlY3VyZS1HMy1haWEudmVyaXNpZ24uY29tL1NWUlNlY3VyZUczLmNlcjAN
BgkqhkiG9w0BAQUFAAOBgQAyRJXTZcwRCkRNGZQCO8txHvrmgv8vQwnZZF6SwyY/
Bry0fmlehtN52NLjjPEG6u9YFYfzSkjQlVR0qfQ2mNs3d6AKFlOdZOT6cuEIZuKe
pDb2Tx5JJbIN6N3fE/lVSW88K9aSCF2n15gYTSVmD0juHuLAoWnIicaa+Sbe2Tsj
AQ==
-----END CERTIFICATE-----
