Certificate:
    Data:
        Version: 3 (0x2)
        Serial Number: 1 (0x1)
    Signature Algorithm: sha1WithRSAEncryption
        Issuer: C=KR, ST=Seoul, O=Samsung, OU=Tizen Test, CN=Test Root CA/emailAddress=tt@gmail.com
        Validity
            Not Before: Jun 18 08:10:59 2014 GMT
            Not After : Jun 18 08:10:59 2015 GMT
        Subject: C=KR, ST=Seoul, O=Samsung, OU=Tizen Test, CN=Test Second CA/emailAddress=tt@gmail.com
        Subject Public Key Info:
            Public Key Algorithm: rsaEncryption
                Public-Key: (1024 bit)
                Modulus:
                    00:cb:26:b3:00:17:f2:73:c4:82:2b:43:34:3f:dc:
                    51:ad:ed:c1:80:50:46:1a:10:54:a8:fa:17:03:29:
                    84:57:69:90:b7:df:f9:24:54:03:58:16:1f:a5:a2:
                    0f:5e:30:95:14:96:dd:13:04:e8:3b:f6:d3:a7:4b:
                    fe:4c:07:05:9a:54:b1:0e:2d:a9:6f:d1:48:f6:15:
                    f8:c4:32:91:9d:ff:11:05:e9:5b:f7:e2:64:93:71:
                    66:9d:30:7c:83:c1:8c:03:65:5c:1d:16:4a:ef:3a:
                    40:3a:5b:08:30:4b:c5:d2:ae:96:c7:fe:79:0a:52:
                    42:a9:93:e6:18:96:32:84:cd
                Exponent: 65537 (0x10001)
        X509v3 extensions:
            X509v3 Subject Key Identifier: 
                A9:49:F3:5B:13:45:76:34:79:FF:57:97:FA:EB:4B:F6:71:6C:18:80
            X509v3 Authority Key Identifier: 
                keyid:64:1E:4F:4B:9E:18:2F:BC:E2:30:C4:73:A6:6B:9E:05:1A:DF:12:08

            X509v3 Basic Constraints: 
                CA:TRUE
            Authority Information Access: 
                OCSP - URI:http://127.0.0.1:8888
                CA Issuers - URI:http://SVRSecure-G3-aia.verisign.com/SVRSecureG3.cer

    Signature Algorithm: sha1WithRSAEncryption
         5a:27:0d:0c:ec:fd:3b:35:b0:40:d6:dd:fe:44:9a:e2:95:66:
         5a:47:f6:c2:ec:b5:22:c9:c5:92:bc:fa:ff:3c:25:bc:f8:e7:
         5f:cb:7f:c8:71:be:73:2f:dc:cc:04:c5:7a:fd:a8:f2:8f:96:
         f2:91:7e:3f:9b:6c:b0:79:29:31:1c:67:9c:e1:0e:92:7b:48:
         36:1e:b1:d5:1d:44:a3:8c:48:dd:09:21:12:f7:24:e0:9d:60:
         73:a7:26:4e:a8:fb:8e:6f:67:f4:cd:bf:49:6c:88:af:74:bf:
         11:f6:8e:8d:84:5e:73:46:fa:37:b2:04:6c:29:fb:71:fa:45:
         61:f0
-----BEGIN CERTIFICATE-----
MIIDLzCCApigAwIBAgIBATANBgkqhkiG9w0BAQUFADB4MQswCQYDVQQGEwJLUjEO
MAwGA1UECAwFU2VvdWwxEDAOBgNVBAoMB1NhbXN1bmcxEzARBgNVBAsMClRpemVu
IFRlc3QxFTATBgNVBAMMDFRlc3QgUm9vdCBDQTEbMBkGCSqGSIb3DQEJARYMdHRA
Z21haWwuY29tMB4XDTE0MDYxODA4MTA1OVoXDTE1MDYxODA4MTA1OVowejELMAkG
A1UEBhMCS1IxDjAMBgNVBAgMBVNlb3VsMRAwDgYDVQQKDAdTYW1zdW5nMRMwEQYD
VQQLDApUaXplbiBUZXN0MRcwFQYDVQQDDA5UZXN0IFNlY29uZCBDQTEbMBkGCSqG
SIb3DQEJARYMdHRAZ21haWwuY29tMIGfMA0GCSqGSIb3DQEBAQUAA4GNADCBiQKB
gQDLJrMAF/JzxIIrQzQ/3FGt7cGAUEYaEFSo+hcDKYRXaZC33/kkVANYFh+log9e
MJUUlt0TBOg79tOnS/5MBwWaVLEOLalv0Uj2FfjEMpGd/xEF6Vv34mSTcWadMHyD
wYwDZVwdFkrvOkA6WwgwS8XSrpbH/nkKUkKpk+YYljKEzQIDAQABo4HGMIHDMB0G
A1UdDgQWBBSpSfNbE0V2NHn/V5f660v2cWwYgDAfBgNVHSMEGDAWgBRkHk9Lnhgv
vOIwxHOma54FGt8SCDAMBgNVHRMEBTADAQH/MHMGCCsGAQUFBwEBBGcwZTAhBggr
BgEFBQcwAYYVaHR0cDovLzEyNy4wLjAuMTo4ODg4MEAGCCsGAQUFBzAChjRodHRw
Oi8vU1ZSU2VjdXJlLUczLWFpYS52ZXJpc2lnbi5jb20vU1ZSU2VjdXJlRzMuY2Vy
MA0GCSqGSIb3DQEBBQUAA4GBAFonDQzs/Ts1sEDW3f5EmuKVZlpH9sLstSLJxZK8
+v88Jbz451/Lf8hxvnMv3MwExXr9qPKPlvKRfj+bbLB5KTEcZ5zhDpJ7SDYesdUd
RKOMSN0JIRL3JOCdYHOnJk6o+45vZ/TNv0lsiK90vxH2jo2EXnNG+jeyBGwp+3H6
RWHw
-----END CERTIFICATE-----
