Certificate:
    Data:
        Version: 3 (0x2)
        Serial Number: 2 (0x2)
    Signature Algorithm: sha1WithRSAEncryption
        Issuer: C=KR, ST=Seoul, O=Samsung, OU=Tizen Test, CN=Test Second CA/emailAddress=tt@gmail.com
        Validity
            Not Before: Jun 18 08:11:04 2014 GMT
            Not After : Jun 18 08:11:04 2015 GMT
        Subject: C=KR, ST=Seoul, O=Samsung, OU=Tizen Test AIA, CN=Test Signer/emailAddress=tt@gmail.com
        Subject Public Key Info:
            Public Key Algorithm: rsaEncryption
                Public-Key: (1024 bit)
                Modulus:
                    00:b0:80:ac:3e:ff:bd:63:59:79:f1:e1:b2:cb:66:
                    b4:cf:98:4f:8d:ac:37:c7:49:f6:71:f3:24:c6:61:
                    e7:b0:33:33:fa:66:55:cc:f1:67:6e:c4:d8:aa:a6:
                    a9:bb:1b:65:cd:d7:cd:86:11:7b:1d:a3:1c:1a:d3:
                    d1:ed:31:51:aa:48:60:3f:04:26:a6:0f:56:7a:96:
                    21:ce:11:be:14:4c:1d:d1:38:9d:65:64:30:e4:c8:
                    9f:5a:81:93:9f:a1:9b:2d:fc:08:fc:f9:bc:15:df:
                    1d:e2:7b:ea:78:6b:6c:3f:f1:e4:ac:6a:5a:df:79:
                    fd:a0:5f:a9:21:69:2b:09:3b
                Exponent: 65537 (0x10001)
        X509v3 extensions:
            X509v3 Basic Constraints: 
                CA:FALSE
            Netscape Comment: 
                OpenSSL Generated Certificate
            X509v3 Subject Key Identifier: 
                4B:D2:72:A2:35:48:F3:87:5F:CB:3E:F6:68:A8:BB:E7:55:F3:99:AA
            X509v3 Authority Key Identifier: 
                keyid:A9:49:F3:5B:13:45:76:34:79:FF:57:97:FA:EB:4B:F6:71:6C:18:80

            Authority Information Access: 
                OCSP - URI:http://127.0.0.1:8888
                CA Issuers - URI:http://SVRSecure-G3-aia.verisign.com/SVRSecureG3.cer

    Signature Algorithm: sha1WithRSAEncryption
         01:3f:ec:ab:bb:df:f6:6a:e6:78:7a:48:d5:d3:75:91:83:95:
         6a:fe:ba:a6:38:70:eb:b8:c3:55:6d:9e:07:e0:f0:4b:44:b4:
         a9:0b:ff:ce:19:a8:60:12:05:0a:7b:cf:41:70:1d:74:95:48:
         b9:e4:3e:58:30:4d:c3:a3:cf:48:fa:11:6e:82:fd:01:3c:66:
         80:db:4d:62:2c:e8:4b:ff:4b:b4:69:59:b5:c8:9c:4d:b7:56:
         23:5b:67:cc:2a:a9:c2:1e:08:e8:1f:38:74:c1:00:b5:a4:86:
         f9:bf:12:6b:60:29:f7:3d:b8:66:97:b5:ba:24:f0:c3:24:77:
         e6:5d
-----BEGIN CERTIFICATE-----
MIIDXTCCAsagAwIBAgIBAjANBgkqhkiG9w0BAQUFADB6MQswCQYDVQQGEwJLUjEO
MAwGA1UECAwFU2VvdWwxEDAOBgNVBAoMB1NhbXN1bmcxEzARBgNVBAsMClRpemVu
IFRlc3QxFzAVBgNVBAMMDlRlc3QgU2Vjb25kIENBMRswGQYJKoZIhvcNAQkBFgx0
dEBnbWFpbC5jb20wHhcNMTQwNjE4MDgxMTA0WhcNMTUwNjE4MDgxMTA0WjB7MQsw
CQYDVQQGEwJLUjEOMAwGA1UECAwFU2VvdWwxEDAOBgNVBAoMB1NhbXN1bmcxFzAV
BgNVBAsMDlRpemVuIFRlc3QgQUlBMRQwEgYDVQQDDAtUZXN0IFNpZ25lcjEbMBkG
CSqGSIb3DQEJARYMdHRAZ21haWwuY29tMIGfMA0GCSqGSIb3DQEBAQUAA4GNADCB
iQKBgQCwgKw+/71jWXnx4bLLZrTPmE+NrDfHSfZx8yTGYeewMzP6ZlXM8WduxNiq
pqm7G2XN182GEXsdoxwa09HtMVGqSGA/BCamD1Z6liHOEb4UTB3ROJ1lZDDkyJ9a
gZOfoZst/Aj8+bwV3x3ie+p4a2w/8eSsalrfef2gX6khaSsJOwIDAQABo4HxMIHu
MAkGA1UdEwQCMAAwLAYJYIZIAYb4QgENBB8WHU9wZW5TU0wgR2VuZXJhdGVkIENl
cnRpZmljYXRlMB0GA1UdDgQWBBRL0nKiNUjzh1/LPvZoqLvnVfOZqjAfBgNVHSME
GDAWgBSpSfNbE0V2NHn/V5f660v2cWwYgDBzBggrBgEFBQcBAQRnMGUwIQYIKwYB
BQUHMAGGFWh0dHA6Ly8xMjcuMC4wLjE6ODg4ODBABggrBgEFBQcwAoY0aHR0cDov
L1NWUlNlY3VyZS1HMy1haWEudmVyaXNpZ24uY29tL1NWUlNlY3VyZUczLmNlcjAN
BgkqhkiG9w0BAQUFAAOBgQABP+yru9/2auZ4ekjV03WRg5Vq/rqmOHDruMNVbZ4H
4PBLRLSpC//OGahgEgUKe89BcB10lUi55D5YME3Do89I+hFugv0BPGaA201iLOhL
/0u0aVm1yJxNt1YjW2fMKqnCHgjoHzh0wQC1pIb5vxJrYCn3Pbhml7W6JPDDJHfm
XQ==
-----END CERTIFICATE-----
