Certificate:
    Data:
        Version: 3 (0x2)
        Serial Number: 3 (0x3)
    Signature Algorithm: sha1WithRSAEncryption
        Issuer: C=KR, ST=Seoul, O=Samsung, OU=Tizen Test, CN=Test Second CA/emailAddress=tt@gmail.com
        Validity
            Not Before: Jun 18 08:11:14 2014 GMT
            Not After : Jun 18 08:11:14 2015 GMT
        Subject: C=KR, ST=Seoul, O=Samsung, OU=Tizen Test REVOKED, CN=Test Signer/emailAddress=tt@gmail.com
        Subject Public Key Info:
            Public Key Algorithm: rsaEncryption
                Public-Key: (1024 bit)
                Modulus:
                    00:dc:f4:b7:27:44:70:33:76:f5:d7:cf:43:4a:c2:
                    a8:0a:f0:f3:d0:df:02:dc:1c:1e:44:d4:be:d4:e3:
                    08:46:41:a3:b5:4f:3c:23:89:34:90:64:7b:cc:52:
                    15:93:07:4f:98:53:9d:db:cf:fd:8f:0a:70:ce:22:
                    c3:ff:02:4b:df:94:41:49:02:e8:a7:d7:4b:c8:1e:
                    53:8b:82:9e:75:e2:db:ce:1e:33:34:4d:00:ac:3d:
                    3c:06:86:c1:dd:27:39:e1:4b:01:56:04:2e:bb:ff:
                    0f:ec:ed:57:bc:50:b6:ed:25:fe:0c:84:8c:22:59:
                    38:f9:84:54:83:94:af:aa:97
                Exponent: 65537 (0x10001)
        X509v3 extensions:
            X509v3 Basic Constraints: 
                CA:FALSE
            Netscape Comment: 
                OpenSSL Generated Certificate
            X509v3 Subject Key Identifier: 
                FE:35:D9:5C:69:D8:F6:D2:BA:37:31:35:93:33:91:81:B4:21:EB:E9
            X509v3 Authority Key Identifier: 
                keyid:A9:49:F3:5B:13:45:76:34:79:FF:57:97:FA:EB:4B:F6:71:6C:18:80

            Authority Information Access: 
                OCSP - URI:http://127.0.0.1:8888
                CA Issuers - URI:http://SVRSecure-G3-aia.verisign.com/SVRSecureG3.cer

    Signature Algorithm: sha1WithRSAEncryption
         a8:6a:83:c1:9b:b2:6b:0f:b0:0e:09:a3:02:bf:e1:ab:19:bb:
         34:a9:24:ce:c9:f5:e1:a9:ba:20:ad:05:31:ec:f6:cc:47:f9:
         f0:5e:3c:70:f1:01:6e:ac:6a:a5:05:2b:40:c5:20:34:e4:b6:
         3b:40:f9:c3:5f:0e:b7:0b:04:96:b1:be:25:e0:33:c3:64:63:
         59:83:73:4b:df:0c:ab:83:d1:00:9b:44:c3:93:55:f4:0d:8b:
         fd:f9:55:59:b2:c0:13:7a:ed:b7:f1:4e:57:9f:1b:c5:3f:bd:
         bf:4d:f9:5b:50:55:98:19:c0:06:24:65:10:48:4d:ad:75:bb:
         57:a6
-----BEGIN CERTIFICATE-----
MIIDYTCCAsqgAwIBAgIBAzANBgkqhkiG9w0BAQUFADB6MQswCQYDVQQGEwJLUjEO
MAwGA1UECAwFU2VvdWwxEDAOBgNVBAoMB1NhbXN1bmcxEzARBgNVBAsMClRpemVu
IFRlc3QxFzAVBgNVBAMMDlRlc3QgU2Vjb25kIENBMRswGQYJKoZIhvcNAQkBFgx0
dEBnbWFpbC5jb20wHhcNMTQwNjE4MDgxMTE0WhcNMTUwNjE4MDgxMTE0WjB/MQsw
CQYDVQQGEwJLUjEOMAwGA1UECAwFU2VvdWwxEDAOBgNVBAoMB1NhbXN1bmcxGzAZ
BgNVBAsMElRpemVuIFRlc3QgUkVWT0tFRDEUMBIGA1UEAwwLVGVzdCBTaWduZXIx
GzAZBgkqhkiG9w0BCQEWDHR0QGdtYWlsLmNvbTCBnzANBgkqhkiG9w0BAQEFAAOB
jQAwgYkCgYEA3PS3J0RwM3b1189DSsKoCvDz0N8C3BweRNS+1OMIRkGjtU88I4k0
kGR7zFIVkwdPmFOd28/9jwpwziLD/wJL35RBSQLop9dLyB5Ti4KedeLbzh4zNE0A
rD08BobB3Sc54UsBVgQuu/8P7O1XvFC27SX+DISMIlk4+YRUg5SvqpcCAwEAAaOB
8TCB7jAJBgNVHRMEAjAAMCwGCWCGSAGG+EIBDQQfFh1PcGVuU1NMIEdlbmVyYXRl
ZCBDZXJ0aWZpY2F0ZTAdBgNVHQ4EFgQU/jXZXGnY9tK6NzE1kzORgbQh6+kwHwYD
VR0jBBgwFoAUqUnzWxNFdjR5/1eX+utL9nFsGIAwcwYIKwYBBQUHAQEEZzBlMCEG
CCsGAQUFBzABhhVodHRwOi8vMTI3LjAuMC4xOjg4ODgwQAYIKwYBBQUHMAKGNGh0
dHA6Ly9TVlJTZWN1cmUtRzMtYWlhLnZlcmlzaWduLmNvbS9TVlJTZWN1cmVHMy5j
ZXIwDQYJKoZIhvcNAQEFBQADgYEAqGqDwZuyaw+wDgmjAr/hqxm7NKkkzsn14am6
IK0FMez2zEf58F48cPEBbqxqpQUrQMUgNOS2O0D5w18OtwsElrG+JeAzw2RjWYNz
S98Mq4PRAJtEw5NV9A2L/flVWbLAE3rtt/FOV58bxT+9v035W1BVmBnABiRlEEhN
rXW7V6Y=
-----END CERTIFICATE-----
