Certificate:
    Data:
        Version: 3 (0x2)
        Serial Number: 4 (0x4)
    Signature Algorithm: sha1WithRSAEncryption
        Issuer: C=KR, ST=Seoul, O=Samsung, OU=Tizen Test, CN=Test Second CA/emailAddress=tt@gmail.com
        Validity
            Not Before: Jun 18 08:11:29 2014 GMT
            Not After : Jun 18 08:11:29 2015 GMT
        Subject: C=KR, ST=Seoul, O=Samsung, OU=Tizen Test NO AIA, CN=Test Signer/emailAddress=tt@gmail.com
        Subject Public Key Info:
            Public Key Algorithm: rsaEncryption
                Public-Key: (1024 bit)
                Modulus:
                    00:c9:92:88:32:45:4e:93:f6:be:6d:39:97:e7:a0:
                    d1:93:1a:13:df:48:14:1b:e6:a8:85:ca:52:40:7f:
                    37:86:ba:05:37:4e:ed:c1:b1:c9:1f:0f:d1:c9:d4:
                    65:ee:db:2f:85:31:5a:04:7c:2d:d2:be:32:6d:a0:
                    d9:3e:17:49:29:f8:ec:be:a4:a6:2b:e6:ee:02:0c:
                    20:39:0b:12:1c:7f:ac:bc:f8:a7:46:96:9c:0a:71:
                    5e:dd:6d:88:cd:af:a1:41:52:86:c2:60:da:af:5f:
                    dc:44:a3:db:18:f9:fb:fd:9a:af:d1:1d:14:22:d0:
                    cd:03:af:d5:aa:db:c1:ed:0d
                Exponent: 65537 (0x10001)
        X509v3 extensions:
            X509v3 Basic Constraints: 
                CA:FALSE
            Netscape Comment: 
                OpenSSL Generated Certificate
            X509v3 Subject Key Identifier: 
                EC:0E:07:A6:63:F0:9C:4C:80:6E:25:56:70:93:B5:54:68:77:97:FC
            X509v3 Authority Key Identifier: 
                keyid:A9:49:F3:5B:13:45:76:34:79:FF:57:97:FA:EB:4B:F6:71:6C:18:80

    Signature Algorithm: sha1WithRSAEncryption
         c3:6a:ad:09:16:63:c5:4a:f5:84:75:25:79:c0:1d:4e:1d:cc:
         15:df:e6:d9:46:6e:3b:0d:93:07:49:7d:ee:fa:4d:c6:39:03:
         05:62:cf:3e:4f:a7:2b:03:9c:6c:dd:76:f4:92:ea:03:c4:e6:
         b3:b6:1d:4b:15:ea:ad:b6:11:a9:29:79:03:7d:a9:eb:6c:97:
         4b:f8:cf:9f:0e:e3:29:50:c2:c5:5b:ec:f8:d0:dd:7d:0c:6b:
         75:10:dc:08:0f:f2:38:6d:a6:e1:83:81:46:e6:8c:fe:3d:17:
         e6:84:d3:a9:bd:d9:ad:d5:ba:b4:e4:86:57:46:6f:81:89:5e:
         fe:bd
-----BEGIN CERTIFICATE-----
MIIC6TCCAlKgAwIBAgIBBDANBgkqhkiG9w0BAQUFADB6MQswCQYDVQQGEwJLUjEO
MAwGA1UECAwFU2VvdWwxEDAOBgNVBAoMB1NhbXN1bmcxEzARBgNVBAsMClRpemVu
IFRlc3QxFzAVBgNVBAMMDlRlc3QgU2Vjb25kIENBMRswGQYJKoZIhvcNAQkBFgx0
dEBnbWFpbC5jb20wHhcNMTQwNjE4MDgxMTI5WhcNMTUwNjE4MDgxMTI5WjB+MQsw
CQYDVQQGEwJLUjEOMAwGA1UECAwFU2VvdWwxEDAOBgNVBAoMB1NhbXN1bmcxGjAY
BgNVBAsMEVRpemVuIFRlc3QgTk8gQUlBMRQwEgYDVQQDDAtUZXN0IFNpZ25lcjEb
MBkGCSqGSIb3DQEJARYMdHRAZ21haWwuY29tMIGfMA0GCSqGSIb3DQEBAQUAA4GN
ADCBiQKBgQDJkogyRU6T9r5tOZfnoNGTGhPfSBQb5qiFylJAfzeGugU3Tu3Bsckf
D9HJ1GXu2y+FMVoEfC3SvjJtoNk+F0kp+Oy+pKYr5u4CDCA5CxIcf6y8+KdGlpwK
cV7dbYjNr6FBUobCYNqvX9xEo9sY+fv9mq/RHRQi0M0Dr9Wq28HtDQIDAQABo3sw
eTAJBgNVHRMEAjAAMCwGCWCGSAGG+EIBDQQfFh1PcGVuU1NMIEdlbmVyYXRlZCBD
ZXJ0aWZpY2F0ZTAdBgNVHQ4EFgQU7A4HpmPwnEyAbiVWcJO1VGh3l/wwHwYDVR0j
BBgwFoAUqUnzWxNFdjR5/1eX+utL9nFsGIAwDQYJKoZIhvcNAQEFBQADgYEAw2qt
CRZjxUr1hHUlecAdTh3MFd/m2UZuOw2TB0l97vpNxjkDBWLPPk+nKwOcbN129JLq
A8Tms7YdSxXqrbYRqSl5A32p62yXS/jPnw7jKVDCxVvs+NDdfQxrdRDcCA/yOG2m
4YOBRuaM/j0X5oTTqb3ZrdW6tOSGV0ZvgYle/r0=
-----END CERTIFICATE-----
