Certificate:
    Data:
        Version: 3 (0x2)
        Serial Number: 18 (0x12)
        Signature Algorithm: sha1WithRSAEncryption
        Issuer: C=KR, ST=KyungGi-Do, L=Suwon-Si, O=Samsung Elec., CN=CA
        Validity
            Not Before: Mar 13 03:24:20 2009 GMT
            Not After : Mar 11 03:24:20 2019 GMT
        Subject: C=KR, ST=KyungGi-Do, O=Samsung Elec., CN=First certificate to test OCSP
        Subject Public Key Info:
            Public Key Algorithm: rsaEncryption
            RSA Public Key: (1024 bit)
                Modulus (1024 bit):
                    00:c0:a9:51:63:19:e2:cc:f3:9d:19:d8:75:90:ab:
                    13:40:a3:3f:9d:dc:ef:48:42:0d:00:36:db:ea:68:
                    fd:b9:15:34:a9:af:0f:52:2b:57:2e:03:74:13:41:
                    b4:59:69:7e:f6:e1:54:42:8d:c3:f4:85:2b:ff:07:
                    97:a4:2f:5b:e4:13:be:72:ef:65:e7:59:be:ed:14:
                    71:82:cc:09:03:50:99:66:08:34:1a:41:45:e6:e3:
                    37:98:32:6a:15:d4:32:63:f7:26:6c:5a:ed:45:bd:
                    bb:aa:be:33:4b:9c:cb:b2:03:13:e3:2d:6f:61:57:
                    2a:e8:e8:44:0f:59:ea:e7:bf
                Exponent: 65537 (0x10001)
        X509v3 extensions:
            Authority Information Access: 
                OCSP - URI:http://127.0.0.1:82/0004

    Signature Algorithm: sha1WithRSAEncryption
        1d:80:7c:33:dd:ab:99:c7:06:f5:aa:fd:16:7d:89:d8:a9:a2:
        89:38:af:26:b7:b1:0f:69:3d:d6:09:3e:6d:dd:d2:e0:51:b8:
        97:fc:8d:96:08:0d:33:2d:75:e7:d2:9e:47:2b:fd:46:5b:c9:
        f2:68:4f:26:8f:83:3d:fc:aa:d7:6a:20:77:15:3f:78:d9:75:
        b3:79:10:fd:ab:ab:95:34:69:64:3c:8a:65:6d:66:bb:a9:da:
        26:79:51:59:a7:c2:97:ea:6c:7f:31:91:d3:a5:c2:65:ca:d5:
        4f:6f:c8:d9:b9:c7:03:7b:c6:2d:16:5f:fe:de:02:28:f3:e9:
        64:ad:e9:62:3c:e5:91:31:0f:c9:c9:33:1a:a5:66:d8:5b:80:
        18:6f:5f:55:34:51:43:fa:79:50:ba:17:19:2c:b9:25:b8:a3:
        a0:b2:08:38:49:6d:3c:86:8c:42:2c:d8:07:bd:39:f1:3c:97:
        8f:c6:83:cd:85:8f:e9:52:63:77:4f:d6:9e:58:3e:22:f8:29:
        8e:44:92:c6:b7:ab:28:35:22:7b:b7:d0:8f:34:70:15:f2:4b:
        91:65:42:8d:d5:ce:75:4b:2f:7b:7e:7f:7e:61:09:5b:b2:1a:
        64:94:18:c9:8e:c3:ee:a4:89:d6:97:55:76:28:b0:e6:bc:7c:
        f0:c9:9b:20:e3:a5:10:da:c1:9c:c4:4e:ff:e8:ca:3c:19:82:
        06:d6:aa:05:cb:05:e5:bd:36:cf:4c:3a:a7:e6:21:af:e8:5e:
        2d:ee:3b:94:24:91:37:92:95:3f:d3:f8:b8:5a:13:56:16:a7:
        20:34:f6:fd:cb:59:6d:4c:ff:04:df:ef:61:08:d9:2f:85:a8:
        b1:7c:07:80:93:31:7b:bb:7f:8d:17:ba:8b:64:41:82:4a:ca:
        f6:a9:f7:69:b8:cf:ed:17:c1:ca:09:5a:52:c4:ce:a0:9c:e3:
        4c:52:ab:ea:b3:4f:3c:93:1d:50:bf:60:e8:6e:d1:bf:90:0c:
        3f:1d:6b:2c:a5:c5:bf:eb:e2:da:cb:76:56:08:51:cc:87:49:
        21:16:f0:a6:85:ce:0f:c3:32:c2:50:cc:04:f5:d1:bb:de:b8:
        db:9b:79:e1:d2:73:14:b2:7c:5a:cf:26:7b:24:4a:58:48:58:
        2e:b1:a1:2f:01:c2:71:40:85:c8:9b:21:10:15:1a:3e:5e:3d:
        79:53:9c:82:b2:4e:ad:91:96:9f:03:c5:f6:44:ea:d6:d6:cf:
        3b:1e:74:e6:b1:f2:f4:b3:e0:7d:91:77:ac:50:d9:66:1b:73:
        59:3e:e6:18:07:bb:e0:60:4f:1e:8d:40:2b:da:25:ac:c8:85:
        d6:31:62:f3:5b:05:4a:11
-----BEGIN CERTIFICATE-----
MIID7DCCAdSgAwIBAgIBEjANBgkqhkiG9w0BAQUFADBaMQswCQYDVQQGEwJLUjET
MBEGA1UECBMKS3l1bmdHaS1EbzERMA8GA1UEBxMIU3V3b24tU2kxFjAUBgNVBAoT
DVNhbXN1bmcgRWxlYy4xCzAJBgNVBAMTAkNBMB4XDTA5MDMxMzAzMjQyMFoXDTE5
MDMxMTAzMjQyMFowYzELMAkGA1UEBhMCS1IxEzARBgNVBAgTCkt5dW5nR2ktRG8x
FjAUBgNVBAoTDVNhbXN1bmcgRWxlYy4xJzAlBgNVBAMTHkZpcnN0IGNlcnRpZmlj
YXRlIHRvIHRlc3QgT0NTUDCBnzANBgkqhkiG9w0BAQEFAAOBjQAwgYkCgYEAwKlR
YxnizPOdGdh1kKsTQKM/ndzvSEINADbb6mj9uRU0qa8PUitXLgN0E0G0WWl+9uFU
Qo3D9IUr/weXpC9b5BO+cu9l51m+7RRxgswJA1CZZgg0GkFF5uM3mDJqFdQyY/cm
bFrtRb27qr4zS5zLsgMT4y1vYVcq6OhED1nq578CAwEAAaM4MDYwNAYIKwYBBQUH
AQEEKDAmMCQGCCsGAQUFBzABhhhodHRwOi8vMTI3LjAuMC4xOjgyLzAwMDQwDQYJ
KoZIhvcNAQEFBQADggIBAB2AfDPdq5nHBvWq/RZ9idipook4rya3sQ9pPdYJPm3d
0uBRuJf8jZYIDTMtdefSnkcr/UZbyfJoTyaPgz38qtdqIHcVP3jZdbN5EP2rq5U0
aWQ8imVtZrup2iZ5UVmnwpfqbH8xkdOlwmXK1U9vyNm5xwN7xi0WX/7eAijz6WSt
6WI85ZExD8nJMxqlZthbgBhvX1U0UUP6eVC6FxksuSW4o6CyCDhJbTyGjEIs2Ae9
OfE8l4/Gg82Fj+lSY3dP1p5YPiL4KY5Eksa3qyg1Inu30I80cBXyS5FlQo3VznVL
L3t+f35hCVuyGmSUGMmOw+6kidaXVXYosOa8fPDJmyDjpRDawZzETv/oyjwZggbW
qgXLBeW9Ns9MOqfmIa/oXi3uO5QkkTeSlT/T+LhaE1YWpyA09v3LWW1M/wTf72EI
2S+FqLF8B4CTMXu7f40XuotkQYJKyvap92m4z+0XwcoJWlLEzqCc40xSq+qzTzyT
HVC/YOhu0b+QDD8dayylxb/r4trLdlYIUcyHSSEW8KaFzg/DMsJQzAT10bveuNub
eeHScxSyfFrPJnskSlhIWC6xoS8BwnFAhcibIRAVGj5ePXlTnIKyTq2Rlp8DxfZE
6tbWzzsedOax8vSz4H2Rd6xQ2WYbc1k+5hgHu+BgTx6NQCvaJazIhdYxYvNbBUoR
-----END CERTIFICATE-----
