Certificate:
    Data:
        Version: 3 (0x2)
        Serial Number: 35 (0x23)
        Signature Algorithm: sha1WithRSAEncryption
        Issuer: C=KR, ST=KyungGi-Do, L=Suwon-Si, O=Samsung Elec., CN=CA
        Validity
            Not Before: Mar 16 12:59:02 2009 GMT
            Not After : Mar 16 12:59:02 2010 GMT
        Subject: C=KR, ST=KyungGi-Do, O=Samsung Elec., CN=OCSP Responder
        Subject Public Key Info:
            Public Key Algorithm: rsaEncryption
            RSA Public Key: (1024 bit)
                Modulus (1024 bit):
                    00:b9:0e:80:20:fc:74:49:08:cb:83:87:76:e4:42:
                    03:42:6e:56:1b:ae:73:43:9b:a6:cf:5d:33:1d:37:
                    cf:b5:22:bc:79:5e:6a:69:02:3e:e2:08:c5:f5:be:
                    ee:ef:df:4f:85:41:a2:5f:d3:76:39:3f:61:56:14:
                    1f:c1:cc:ec:45:e3:b2:e2:b0:e8:20:9f:a9:e7:8a:
                    b8:ed:3f:e4:6f:86:d8:e5:d5:3b:fe:47:e8:8f:51:
                    ee:dd:b6:7f:36:6b:c7:75:f7:78:04:df:ac:51:b3:
                    25:65:04:ab:0d:ce:db:5e:3a:db:6a:8f:da:69:46:
                    c7:92:f2:b3:ba:6c:90:3d:71
                Exponent: 65537 (0x10001)
        X509v3 extensions:
            OCSP No Check: 

    Signature Algorithm: sha1WithRSAEncryption
        56:3b:b8:5c:63:eb:9d:db:55:cc:00:8e:5b:2b:2b:b1:17:d4:
        f0:a4:ca:f7:b9:02:37:ea:2a:ff:df:34:a0:ba:af:a2:47:a5:
        8e:1a:f9:eb:97:51:16:a5:6a:35:20:3f:5a:8a:25:98:00:73:
        3e:b1:c9:1c:9c:a2:12:72:be:3f:ce:e3:7e:09:c0:8c:4a:eb:
        33:4c:77:7c:5c:7c:d7:20:07:a0:9f:48:1d:f9:9a:24:e1:50:
        f6:63:c4:6e:70:65:12:51:47:79:c5:0e:d9:c2:c5:f5:69:67:
        34:a5:b9:64:6e:31:ed:76:5b:66:74:41:10:35:58:48:43:e1:
        29:72:25:dd:64:9b:80:03:31:96:a2:d0:75:58:06:66:37:c2:
        86:fb:42:a6:50:3b:8c:22:e0:b9:a7:b5:7d:35:df:5d:58:ca:
        f1:e9:be:60:6d:cc:2d:72:d7:c6:c1:8e:48:6f:ed:54:06:fa:
        31:92:c7:34:8a:64:32:82:4b:a9:20:9f:8c:1d:2d:c1:f1:35:
        77:5b:0f:7d:f0:2a:0c:a8:b2:cb:86:ac:cd:9c:5d:91:df:78:
        b1:e1:cc:1e:f7:da:7e:3d:01:4a:86:07:86:9f:50:3b:69:91:
        cf:3e:22:ec:7a:e3:c8:8f:f8:69:d2:f0:16:de:b6:5c:e4:fa:
        89:1a:de:74:d3:fb:df:16:1d:46:d4:7d:b6:74:8a:eb:fc:bf:
        c0:82:3b:1d:c3:af:6f:b5:12:f2:c6:cc:05:47:12:cb:4e:f6:
        48:b9:da:bd:da:b0:dc:3c:a5:83:29:11:7e:66:7f:1e:08:5f:
        7e:90:13:a5:63:c9:76:5e:91:b2:37:3b:ff:e7:8d:07:ab:0c:
        34:57:17:8d:09:92:86:1b:63:68:c1:e3:c8:f1:56:19:46:5b:
        a9:1a:13:a2:23:9b:57:2d:92:25:cc:b7:fe:62:1c:80:bb:08:
        e4:23:1d:9f:ad:5c:41:6d:27:b2:9d:d6:03:96:c6:22:f1:cb:
        87:04:c7:55:22:4b:88:6c:07:11:e6:d1:ca:0e:2a:5a:a4:9b:
        ea:e4:90:ef:e5:ea:ae:a5:db:dd:dd:85:da:a3:80:1a:fb:91:
        df:f3:8a:65:35:8f:a8:d4:65:51:b7:f7:f9:fb:b4:97:d8:a2:
        4d:04:4d:f5:89:d2:ed:ee:f4:2e:b4:ba:45:8f:36:1d:20:0a:
        89:c6:aa:be:39:1c:cb:e4:07:a1:d0:0e:c7:8c:b0:70:25:10:
        7e:cb:64:0d:1f:32:5e:b5:7b:c0:d9:15:e4:aa:a5:b3:5f:4a:
        91:0f:b5:b8:9e:a2:6b:f7:d7:73:35:dc:bc:e2:88:6e:b1:79:
        0c:f6:dd:e9:9a:fb:1a:45
-----BEGIN CERTIFICATE-----
MIIDtzCCAZ+gAwIBAgIBIzANBgkqhkiG9w0BAQUFADBaMQswCQYDVQQGEwJLUjET
MBEGA1UECBMKS3l1bmdHaS1EbzERMA8GA1UEBxMIU3V3b24tU2kxFjAUBgNVBAoT
DVNhbXN1bmcgRWxlYy4xCzAJBgNVBAMTAkNBMB4XDTA5MDMxNjEyNTkwMloXDTEw
MDMxNjEyNTkwMlowUzELMAkGA1UEBhMCS1IxEzARBgNVBAgTCkt5dW5nR2ktRG8x
FjAUBgNVBAoTDVNhbXN1bmcgRWxlYy4xFzAVBgNVBAMTDk9DU1AgUmVzcG9uZGVy
MIGfMA0GCSqGSIb3DQEBAQUAA4GNADCBiQKBgQC5DoAg/HRJCMuDh3bkQgNCblYb
rnNDm6bPXTMdN8+1Irx5XmppAj7iCMX1vu7v30+FQaJf03Y5P2FWFB/BzOxF47Li
sOggn6nnirjtP+Rvhtjl1Tv+R+iPUe7dtn82a8d193gE36xRsyVlBKsNztteOttq
j9ppRseS8rO6bJA9cQIDAQABoxMwETAPBgkrBgEFBQcwAQUEAgUAMA0GCSqGSIb3
DQEBBQUAA4ICAQBWO7hcY+ud21XMAI5bKyuxF9TwpMr3uQI36ir/3zSguq+iR6WO
Gvnrl1EWpWo1ID9aiiWYAHM+sckcnKIScr4/zuN+CcCMSuszTHd8XHzXIAegn0gd
+Zok4VD2Y8RucGUSUUd5xQ7ZwsX1aWc0pblkbjHtdltmdEEQNVhIQ+EpciXdZJuA
AzGWotB1WAZmN8KG+0KmUDuMIuC5p7V9Nd9dWMrx6b5gbcwtctfGwY5Ib+1UBvox
ksc0imQygkupIJ+MHS3B8TV3Ww998CoMqLLLhqzNnF2R33ix4cwe99p+PQFKhgeG
n1A7aZHPPiLseuPIj/hp0vAW3rZc5PqJGt500/vfFh1G1H22dIrr/L/Agjsdw69v
tRLyxswFRxLLTvZIudq92rDcPKWDKRF+Zn8eCF9+kBOlY8l2XpGyNzv/540Hqww0
VxeNCZKGG2NowePI8VYZRlupGhOiI5tXLZIlzLf+YhyAuwjkIx2frVxBbSeyndYD
lsYi8cuHBMdVIkuIbAcR5tHKDipapJvq5JDv5equpdvd3YXao4Aa+5Hf84plNY+o
1GVRt/f5+7SX2KJNBE31idLt7vQutLpFjzYdIAqJxqq+ORzL5Aeh0A7HjLBwJRB+
y2QNHzJetXvA2RXkqqWzX0qRD7W4nqJr99dzNdy84ohusXkM9t3pmvsaRQ==
-----END CERTIFICATE-----
