Certificate:
    Data:
        Version: 3 (0x2)
        Serial Number: 36 (0x24)
        Signature Algorithm: sha1WithRSAEncryption
        Issuer: C=KR, ST=KyungGi-Do, L=Suwon-Si, O=Samsung Elec., CN=CA
        Validity
            Not Before: Mar 16 12:59:24 2009 GMT
            Not After : Mar 16 12:59:24 2010 GMT
        Subject: C=KR, ST=KyungGi-Do, O=Samsung Elec., CN=OCSP Responder
        Subject Public Key Info:
            Public Key Algorithm: rsaEncryption
            RSA Public Key: (1024 bit)
                Modulus (1024 bit):
                    00:b9:0e:80:20:fc:74:49:08:cb:83:87:76:e4:42:
                    03:42:6e:56:1b:ae:73:43:9b:a6:cf:5d:33:1d:37:
                    cf:b5:22:bc:79:5e:6a:69:02:3e:e2:08:c5:f5:be:
                    ee:ef:df:4f:85:41:a2:5f:d3:76:39:3f:61:56:14:
                    1f:c1:cc:ec:45:e3:b2:e2:b0:e8:20:9f:a9:e7:8a:
                    b8:ed:3f:e4:6f:86:d8:e5:d5:3b:fe:47:e8:8f:51:
                    ee:dd:b6:7f:36:6b:c7:75:f7:78:04:df:ac:51:b3:
                    25:65:04:ab:0d:ce:db:5e:3a:db:6a:8f:da:69:46:
                    c7:92:f2:b3:ba:6c:90:3d:71
                Exponent: 65537 (0x10001)
        X509v3 extensions:
            OCSP No Check: 

    Signature Algorithm: sha1WithRSAEncryption
        5c:26:43:01:d9:b4:43:ff:e0:3f:49:67:cd:a3:ea:1c:b3:75:
        f9:12:d8:c8:0b:96:65:a5:bd:db:15:3c:d6:18:2c:00:59:2d:
        1c:17:a6:74:8d:48:03:70:9c:c9:70:00:74:81:0b:b6:5d:c3:
        cf:41:ed:1b:1a:06:89:f7:e3:b0:61:33:bf:b9:9b:11:68:bb:
        30:50:c2:f5:13:40:84:42:b8:7d:9e:cb:03:03:8f:5c:7b:44:
        23:dc:e3:ed:dc:09:c6:d4:aa:23:19:50:bc:6c:2a:a9:f9:3b:
        55:e7:3d:34:aa:6e:96:7a:a5:72:95:9e:42:21:05:ca:98:1d:
        06:80:55:8e:b8:eb:d7:56:12:f9:84:c3:c9:2e:73:eb:fa:5b:
        15:f4:11:a5:95:b5:52:90:52:c7:0e:8c:7a:5d:30:34:2e:4b:
        ca:98:91:19:cc:3b:88:5f:18:85:8f:0d:31:97:ee:2d:7c:d4:
        95:ea:b1:03:15:7d:f6:0a:64:bd:8f:b4:fd:7e:51:91:c2:6d:
        13:51:7c:0f:d8:6d:6e:a8:56:3a:73:a2:d9:9a:37:19:ce:31:
        8f:a2:b7:39:c9:5e:f0:8b:7d:fe:e4:19:9d:49:11:86:1c:d6:
        04:00:84:53:62:ee:94:f9:7c:b3:2d:db:5a:3c:3d:ce:e9:5f:
        76:52:c5:b8:b6:2b:02:52:8a:b2:5f:99:00:9b:12:36:77:d4:
        38:ad:8f:34:b3:7e:2b:6d:cf:34:7b:f3:62:79:4b:da:8f:54:
        bd:cb:f9:d8:10:71:d7:dc:37:34:f9:2c:33:b9:33:b0:38:f8:
        ec:6c:70:61:ad:37:92:28:71:a5:fe:08:54:9f:1d:6f:ba:28:
        1d:6b:a8:35:a4:09:06:73:b8:38:a4:32:48:a9:4b:a9:7c:32:
        0c:18:bd:4b:8f:e0:b6:d7:83:30:89:df:d2:da:5a:f6:5b:fa:
        84:5c:32:bf:1d:6d:1d:9e:d5:a9:a2:75:88:3d:4a:15:d8:cb:
        41:7d:ec:94:f1:18:f6:9f:7f:c6:75:1f:77:02:2f:7b:30:1e:
        56:b6:bd:b1:c6:d9:e9:44:71:bb:1c:74:a0:17:1a:da:10:4e:
        22:f1:e0:13:6e:ec:56:61:18:72:fe:81:a6:2d:47:c3:90:9a:
        3a:4d:06:97:9a:22:ef:f4:7c:37:d9:64:3b:6c:15:9f:fd:77:
        cc:a9:77:ff:6a:7e:dd:06:0d:43:c5:a6:37:39:df:4d:a5:80:
        ac:5d:f8:d5:7c:ca:90:a3:58:2b:b6:ea:ed:f1:c3:91:15:28:
        e3:5e:c0:fb:f9:6e:18:de:63:df:43:a5:d3:8f:ae:4e:44:3c:
        4c:6c:92:40:1f:bd:d1:6a
-----BEGIN CERTIFICATE-----
MIIDtzCCAZ+gAwIBAgIBJDANBgkqhkiG9w0BAQUFADBaMQswCQYDVQQGEwJLUjET
MBEGA1UECBMKS3l1bmdHaS1EbzERMA8GA1UEBxMIU3V3b24tU2kxFjAUBgNVBAoT
DVNhbXN1bmcgRWxlYy4xCzAJBgNVBAMTAkNBMB4XDTA5MDMxNjEyNTkyNFoXDTEw
MDMxNjEyNTkyNFowUzELMAkGA1UEBhMCS1IxEzARBgNVBAgTCkt5dW5nR2ktRG8x
FjAUBgNVBAoTDVNhbXN1bmcgRWxlYy4xFzAVBgNVBAMTDk9DU1AgUmVzcG9uZGVy
MIGfMA0GCSqGSIb3DQEBAQUAA4GNADCBiQKBgQC5DoAg/HRJCMuDh3bkQgNCblYb
rnNDm6bPXTMdN8+1Irx5XmppAj7iCMX1vu7v30+FQaJf03Y5P2FWFB/BzOxF47Li
sOggn6nnirjtP+Rvhtjl1Tv+R+iPUe7dtn82a8d193gE36xRsyVlBKsNztteOttq
j9ppRseS8rO6bJA9cQIDAQABoxMwETAPBgkrBgEFBQcwAQUEAgUAMA0GCSqGSIb3
DQEBBQUAA4ICAQBcJkMB2bRD/+A/SWfNo+ocs3X5EtjIC5Zlpb3bFTzWGCwAWS0c
F6Z0jUgDcJzJcAB0gQu2XcPPQe0bGgaJ9+OwYTO/uZsRaLswUML1E0CEQrh9nssD
A49ce0Qj3OPt3AnG1KojGVC8bCqp+TtV5z00qm6WeqVylZ5CIQXKmB0GgFWOuOvX
VhL5hMPJLnPr+lsV9BGllbVSkFLHDox6XTA0LkvKmJEZzDuIXxiFjw0xl+4tfNSV
6rEDFX32CmS9j7T9flGRwm0TUXwP2G1uqFY6c6LZmjcZzjGPorc5yV7wi33+5Bmd
SRGGHNYEAIRTYu6U+XyzLdtaPD3O6V92UsW4tisCUoqyX5kAmxI2d9Q4rY80s34r
bc80e/NieUvaj1S9y/nYEHHX3Dc0+SwzuTOwOPjsbHBhrTeSKHGl/ghUnx1vuigd
a6g1pAkGc7g4pDJIqUupfDIMGL1Lj+C214Mwid/S2lr2W/qEXDK/HW0dntWponWI
PUoV2MtBfeyU8Rj2n3/GdR93Ai97MB5Wtr2xxtnpRHG7HHSgFxraEE4i8eATbuxW
YRhy/oGmLUfDkJo6TQaXmiLv9Hw32WQ7bBWf/XfMqXf/an7dBg1DxaY3Od9NpYCs
XfjVfMqQo1grturt8cORFSjjXsD7+W4Y3mPfQ6XTj65ORDxMbJJAH73Rag==
-----END CERTIFICATE-----
