Certificate:
    Data:
        Version: 3 (0x2)
        Serial Number: 40 (0x28)
        Signature Algorithm: sha1WithRSAEncryption
        Issuer: C=KR, ST=KyungGi-Do, L=Suwon-Si, O=Samsung Elec., CN=CA
        Validity
            Not Before: Mar 16 23:08:54 2009 GMT
            Not After : Mar 14 23:08:54 2019 GMT
        Subject: C=KR, ST=KyungGi-Do, O=Samsung Elec., CN=OCSP Responder's certificate with delegation
        Subject Public Key Info:
            Public Key Algorithm: rsaEncryption
            RSA Public Key: (1024 bit)
                Modulus (1024 bit):
                    00:d0:8a:8e:73:c5:57:a8:03:b0:2c:1f:05:05:36:
                    1b:90:89:db:48:b2:cd:e8:ea:02:95:d8:30:c3:c6:
                    3e:6a:8c:19:70:0c:a7:cb:a6:07:df:ec:42:c9:dc:
                    18:cf:ef:73:cd:d1:eb:51:c0:bd:0e:51:63:6f:a3:
                    ce:26:a0:02:da:32:a3:65:36:ad:42:02:85:9b:df:
                    9e:0a:51:41:93:f9:02:ff:f0:63:be:38:2e:b9:d9:
                    07:db:3c:81:23:4f:2a:0d:24:50:6e:e2:ef:59:f4:
                    91:3a:fb:fd:55:19:4b:49:71:08:bd:f9:2d:ea:64:
                    82:f6:1a:ca:46:60:ac:de:e5
                Exponent: 65537 (0x10001)
        X509v3 extensions:
            X509v3 Extended Key Usage: 
                OCSP Signing
            OCSP No Check: 

    Signature Algorithm: sha1WithRSAEncryption
        05:a1:04:c7:55:71:a8:52:04:d6:60:f3:37:08:15:50:86:71:
        bf:8e:9e:9b:60:50:6e:57:1e:b1:30:3a:e0:8a:e0:74:90:c0:
        be:97:78:f1:8b:52:f3:6b:e6:45:38:a5:7b:e2:47:2d:5c:80:
        15:e7:74:b2:b1:66:db:eb:96:67:7c:01:8b:5e:c1:c2:59:33:
        2e:62:a9:a3:7f:c7:b8:07:ee:27:22:83:11:e3:e9:b9:59:a5:
        1f:27:1f:6f:b9:34:c5:c2:ae:d5:cd:59:59:28:05:78:ff:0f:
        18:6a:c8:22:5b:40:06:0b:a9:ee:8c:e5:44:04:59:a0:f2:42:
        e8:52:a4:ec:45:78:1e:b4:cf:02:e5:b5:31:d2:f4:93:15:58:
        bc:02:a6:b0:01:5a:d9:72:eb:80:64:e9:f1:d5:38:69:f4:1a:
        4d:7c:78:d7:ba:9e:ca:41:22:a6:09:c2:7e:fe:90:20:7f:72:
        ae:ca:76:30:39:e5:1e:70:63:bc:68:e4:ee:0f:e7:7a:b0:cf:
        c4:70:26:b8:dd:4e:9f:9f:75:11:05:be:d8:17:95:c1:75:ac:
        e6:91:f7:b8:8e:93:f3:45:c1:9d:10:10:71:69:92:6d:f1:b8:
        73:18:ed:02:84:6d:ab:6c:cc:91:be:ac:3c:61:39:48:74:e2:
        27:b9:16:5e:02:6c:c4:1b:35:a2:68:24:44:5c:4e:37:58:6d:
        f3:a4:e9:6a:d9:56:92:6d:05:6e:e1:f3:f5:7b:11:40:4b:2b:
        13:32:e5:18:5b:62:64:1a:17:9f:91:fd:0c:95:54:02:09:6f:
        48:ea:c8:ae:7e:24:bb:a8:b1:33:c8:98:50:90:8d:b2:5b:21:
        1e:af:d2:78:ae:87:a7:32:82:3d:aa:9d:66:0d:92:59:02:8c:
        3f:73:43:76:74:58:f9:95:fd:5c:90:31:d7:c7:7a:2a:fb:e0:
        bb:b8:50:62:3c:44:09:34:dd:68:10:11:be:c6:c3:65:a4:e8:
        e3:9d:0f:59:a2:a7:e5:d5:97:8b:48:a0:d4:30:31:aa:9e:4b:
        e2:30:ed:06:72:c8:97:0d:6a:70:a8:c9:ca:9c:d4:f1:57:0b:
        bf:24:43:7e:b7:a1:a5:91:af:ac:ae:f5:c6:8b:ef:aa:61:e5:
        c4:7d:37:31:a0:5f:e9:45:9d:d8:08:b9:15:da:16:2a:16:77:
        c7:82:0e:02:6e:9b:ec:25:f3:8f:8d:11:41:0b:56:a9:7b:1d:
        0f:f3:be:fa:46:ee:cb:80:3b:09:1f:85:90:70:ed:1d:e3:65:
        f4:81:3f:ef:86:32:6c:9c:b0:35:e2:73:41:fb:0c:0c:2d:2d:
        cb:45:0e:73:d3:39:98:36
-----BEGIN CERTIFICATE-----
MIID6jCCAdKgAwIBAgIBKDANBgkqhkiG9w0BAQUFADBaMQswCQYDVQQGEwJLUjET
MBEGA1UECBMKS3l1bmdHaS1EbzERMA8GA1UEBxMIU3V3b24tU2kxFjAUBgNVBAoT
DVNhbXN1bmcgRWxlYy4xCzAJBgNVBAMTAkNBMB4XDTA5MDMxNjIzMDg1NFoXDTE5
MDMxNDIzMDg1NFowcTELMAkGA1UEBhMCS1IxEzARBgNVBAgTCkt5dW5nR2ktRG8x
FjAUBgNVBAoTDVNhbXN1bmcgRWxlYy4xNTAzBgNVBAMTLE9DU1AgUmVzcG9uZGVy
J3MgY2VydGlmaWNhdGUgd2l0aCBkZWxlZ2F0aW9uMIGfMA0GCSqGSIb3DQEBAQUA
A4GNADCBiQKBgQDQio5zxVeoA7AsHwUFNhuQidtIss3o6gKV2DDDxj5qjBlwDKfL
pgff7ELJ3BjP73PN0etRwL0OUWNvo84moALaMqNlNq1CAoWb354KUUGT+QL/8GO+
OC652QfbPIEjTyoNJFBu4u9Z9JE6+/1VGUtJcQi9+S3qZIL2GspGYKze5QIDAQAB
oygwJjATBgNVHSUEDDAKBggrBgEFBQcDCTAPBgkrBgEFBQcwAQUEAgUAMA0GCSqG
SIb3DQEBBQUAA4ICAQAFoQTHVXGoUgTWYPM3CBVQhnG/jp6bYFBuVx6xMDrgiuB0
kMC+l3jxi1Lza+ZFOKV74kctXIAV53SysWbb65ZnfAGLXsHCWTMuYqmjf8e4B+4n
IoMR4+m5WaUfJx9vuTTFwq7VzVlZKAV4/w8YasgiW0AGC6nujOVEBFmg8kLoUqTs
RXgetM8C5bUx0vSTFVi8AqawAVrZcuuAZOnx1Thp9BpNfHjXup7KQSKmCcJ+/pAg
f3KuynYwOeUecGO8aOTuD+d6sM/EcCa43U6fn3URBb7YF5XBdazmkfe4jpPzRcGd
EBBxaZJt8bhzGO0ChG2rbMyRvqw8YTlIdOInuRZeAmzEGzWiaCREXE43WG3zpOlq
2VaSbQVu4fP1exFASysTMuUYW2JkGhefkf0MlVQCCW9I6siufiS7qLEzyJhQkI2y
WyEer9J4roenMoI9qp1mDZJZAow/c0N2dFj5lf1ckDHXx3oq++C7uFBiPEQJNN1o
EBG+xsNlpOjjnQ9Zoqfl1ZeLSKDUMDGqnkviMO0GcsiXDWpwqMnKnNTxVwu/JEN+
t6Glka+srvXGi++qYeXEfTcxoF/pRZ3YCLkV2hYqFnfHgg4CbpvsJfOPjRFBC1ap
ex0P8776Ru7LgDsJH4WQcO0d42X0gT/vhjJsnLA14nNB+wwMLS3LRQ5z0zmYNg==
-----END CERTIFICATE-----
