Certificate:
    Data:
        Version: 3 (0x2)
        Serial Number: 5 (0x5)
        Signature Algorithm: sha1WithRSAEncryption
        Issuer: C=AU, ST=Some-State, O=Internet Widgits Pty Ltd, OU=chain5, CN=chain5/emailAddress=chain5
        Validity
            Not Before: May 13 01:23:13 2011 GMT
            Not After : May 12 01:23:13 2012 GMT
        Subject: C=AU, ST=Some-State, O=Internet Widgits Pty Ltd, OU=server, CN=server/emailAddress=server
        Subject Public Key Info:
            Public Key Algorithm: rsaEncryption
            RSA Public Key: (1024 bit)
                Modulus (1024 bit):
                    00:d9:75:ea:49:42:39:98:26:0f:61:30:bd:f3:70:
                    17:bd:ca:5b:1b:a1:31:68:9d:63:7e:a6:c5:1e:2e:
                    1f:13:63:6b:ef:b0:23:b7:21:b6:1e:f7:65:f1:01:
                    e7:1c:4a:c8:d1:15:20:e9:d4:cb:9d:b2:4c:57:b4:
                    a8:4b:0e:e3:5b:54:16:10:51:3b:3f:af:51:e9:e3:
                    d0:7d:1e:a3:30:59:dd:8e:8c:b5:69:02:5d:a3:5e:
                    37:02:22:05:e2:6d:04:b8:fb:2b:33:d5:59:c9:e3:
                    9e:74:59:65:b2:7f:03:e5:0c:dd:93:62:1a:55:94:
                    4d:5c:e1:bd:cc:99:19:04:61
                Exponent: 65537 (0x10001)
        X509v3 extensions:
            X509v3 Basic Constraints: 
                CA:FALSE
            Netscape Comment: 
                OpenSSL Generated Certificate
            X509v3 Subject Key Identifier: 
                2E:EE:9A:24:CA:AA:22:7C:B3:7F:13:56:FC:A8:FC:06:0F:FB:63:7D
            X509v3 Authority Key Identifier: 
                DirName:/C=AU/ST=Some-State/O=Internet Widgits Pty Ltd/OU=chain4/CN=chain4/emailAddress=chain4
                serial:04

    Signature Algorithm: sha1WithRSAEncryption
        d6:e7:97:51:80:37:cc:cf:b5:96:47:cc:4b:ca:62:f4:d1:43:
        a1:d2:8b:9a:21:50:99:04:9f:c0:00:f1:0c:71:18:82:88:63:
        9e:86:6c:a1:2c:25:0e:c1:30:32:db:02:5b:47:ae:8d:5e:ba:
        0f:3d:16:84:39:c6:30:91:8d:b9:23:1b:a9:58:52:9c:49:81:
        c9:87:e3:34:1d:dc:a0:dd:81:0b:1e:f6:d7:a7:2e:bd:dc:1c:
        7b:d7:5c:0f:ec:da:09:81:45:36:63:76:e8:31:ba:cd:26:dc:
        7a:80:18:c4:3e:be:14:14:07:dc:4b:1a:b5:c4:2c:38:10:f6:
        13:84
-----BEGIN CERTIFICATE-----
MIIDZTCCAs6gAwIBAgIBBTANBgkqhkiG9w0BAQUFADB+MQswCQYDVQQGEwJBVTET
MBEGA1UECBMKU29tZS1TdGF0ZTEhMB8GA1UEChMYSW50ZXJuZXQgV2lkZ2l0cyBQ
dHkgTHRkMQ8wDQYDVQQLEwZjaGFpbjUxDzANBgNVBAMTBmNoYWluNTEVMBMGCSqG
SIb3DQEJARYGY2hhaW41MB4XDTExMDUxMzAxMjMxM1oXDTEyMDUxMjAxMjMxM1ow
fjELMAkGA1UEBhMCQVUxEzARBgNVBAgTClNvbWUtU3RhdGUxITAfBgNVBAoTGElu
dGVybmV0IFdpZGdpdHMgUHR5IEx0ZDEPMA0GA1UECxMGc2VydmVyMQ8wDQYDVQQD
EwZzZXJ2ZXIxFTATBgkqhkiG9w0BCQEWBnNlcnZlcjCBnzANBgkqhkiG9w0BAQEF
AAOBjQAwgYkCgYEA2XXqSUI5mCYPYTC983AXvcpbG6ExaJ1jfqbFHi4fE2Nr77Aj
tyG2Hvdl8QHnHErI0RUg6dTLnbJMV7SoSw7jW1QWEFE7P69R6ePQfR6jMFndjoy1
aQJdo143AiIF4m0EuPsrM9VZyeOedFllsn8D5Qzdk2IaVZRNXOG9zJkZBGECAwEA
AaOB8jCB7zAJBgNVHRMEAjAAMCwGCWCGSAGG+EIBDQQfFh1PcGVuU1NMIEdlbmVy
YXRlZCBDZXJ0aWZpY2F0ZTAdBgNVHQ4EFgQULu6aJMqqInyzfxNW/Kj8Bg/7Y30w
gZQGA1UdIwSBjDCBiaGBg6SBgDB+MQswCQYDVQQGEwJBVTETMBEGA1UECBMKU29t
ZS1TdGF0ZTEhMB8GA1UEChMYSW50ZXJuZXQgV2lkZ2l0cyBQdHkgTHRkMQ8wDQYD
VQQLEwZjaGFpbjQxDzANBgNVBAMTBmNoYWluNDEVMBMGCSqGSIb3DQEJARYGY2hh
aW40ggEEMA0GCSqGSIb3DQEBBQUAA4GBANbnl1GAN8zPtZZHzEvKYvTRQ6HSi5oh
UJkEn8AA8QxxGIKIY56GbKEsJQ7BMDLbAltHro1eug89FoQ5xjCRjbkjG6lYUpxJ
gcmH4zQd3KDdgQse9tenLr3cHHvXXA/s2gmBRTZjdugxus0m3HqAGMQ+vhQUB9xL
GrXELDgQ9hOE
-----END CERTIFICATE-----
