Certificate:
    Data:
        Version: 3 (0x2)
        Serial Number: 22 (0x16)
        Signature Algorithm: sha1WithRSAEncryption
        Issuer: C=KR, ST=KyungGi-Do, L=Suwon-Si, O=Samsung Elec., CN=CA
        Validity
            Not Before: Mar 14 13:48:12 2009 GMT
            Not After : Mar 14 13:48:12 2010 GMT
        Subject: C=KR, ST=KyungGi-Do, O=Samsung Elec., CN=First certificate to test OCSP
        Subject Public Key Info:
            Public Key Algorithm: rsaEncryption
            RSA Public Key: (1024 bit)
                Modulus (1024 bit):
                    00:c0:a9:51:63:19:e2:cc:f3:9d:19:d8:75:90:ab:
                    13:40:a3:3f:9d:dc:ef:48:42:0d:00:36:db:ea:68:
                    fd:b9:15:34:a9:af:0f:52:2b:57:2e:03:74:13:41:
                    b4:59:69:7e:f6:e1:54:42:8d:c3:f4:85:2b:ff:07:
                    97:a4:2f:5b:e4:13:be:72:ef:65:e7:59:be:ed:14:
                    71:82:cc:09:03:50:99:66:08:34:1a:41:45:e6:e3:
                    37:98:32:6a:15:d4:32:63:f7:26:6c:5a:ed:45:bd:
                    bb:aa:be:33:4b:9c:cb:b2:03:13:e3:2d:6f:61:57:
                    2a:e8:e8:44:0f:59:ea:e7:bf
                Exponent: 65537 (0x10001)
        X509v3 extensions:
            Authority Information Access: 
                OCSP - URI:http://127.0.0.1:85/0007

    Signature Algorithm: sha1WithRSAEncryption
        b1:9e:ce:8d:09:9e:f9:21:6f:be:f2:a7:54:6e:24:82:e3:2b:
        88:b7:0d:e0:e2:49:33:b4:8b:ad:60:71:cc:20:23:57:cf:17:
        a8:46:c0:a7:1a:5f:8e:8d:1a:cc:0b:1b:da:a4:34:b1:d7:74:
        1b:a7:e4:71:a1:2d:fd:2e:18:51:02:2c:93:ff:a9:f7:98:bd:
        ed:6b:4c:55:8e:24:f6:97:8e:8a:80:56:52:7a:17:da:94:96:
        fa:27:78:8c:65:40:a6:b1:d2:2a:13:fe:76:c0:0c:f2:04:3f:
        d1:88:25:c3:5a:05:ca:33:d7:bb:27:e2:8b:e8:d4:00:fd:fc:
        b6:a8:9d:27:c2:f9:ea:98:32:79:85:9d:a3:e7:bf:78:65:e8:
        15:ef:49:48:87:a9:b2:b4:c4:cb:ec:a7:da:90:36:d6:c5:6f:
        ff:c3:85:19:13:0b:27:6a:d3:c4:e7:97:62:08:49:a3:e9:22:
        9a:3c:d1:91:8f:6e:8e:87:47:0e:38:43:8e:5a:84:f6:9c:24:
        c1:9f:90:29:dc:38:73:72:7d:3f:d6:7f:dd:b3:d1:1d:cf:7b:
        bc:31:a6:6b:b4:be:10:06:94:69:a0:16:ef:bd:e9:e7:a2:8b:
        18:e1:10:27:7f:9d:8a:f9:60:18:d5:93:54:d6:4e:c2:31:bf:
        37:00:db:d5:cf:85:da:e9:7b:e4:bb:48:f3:a5:6e:ba:48:1b:
        50:6a:10:99:f8:77:81:95:78:1b:d0:fe:d0:74:47:28:05:34:
        32:32:5f:1f:52:42:85:f8:7a:f1:a8:87:ff:2f:6c:ec:83:09:
        91:85:0a:43:ce:35:a2:7f:94:b6:ae:70:94:b6:0f:c9:c7:8a:
        ee:7c:a7:32:8a:ee:c3:e1:ee:01:34:c1:b8:db:98:80:4c:ac:
        5f:ac:18:02:fa:f5:c1:36:df:39:57:57:81:b9:26:d0:81:0e:
        75:79:18:21:29:a6:cb:eb:97:58:f2:dd:8a:88:c1:a2:c7:54:
        9f:97:89:b1:ef:ff:11:5f:18:0a:cd:25:3e:d8:35:07:45:55:
        1e:bb:a2:54:fc:66:ac:0f:ac:2a:77:d6:1a:a4:44:cc:5a:49:
        37:45:70:5b:c9:3d:2c:6d:c1:7e:af:4d:9c:4f:2a:a2:d9:01:
        3d:e2:7f:a4:f2:4b:d7:60:b1:06:a3:b4:46:35:43:1c:be:79:
        46:a7:8a:50:ee:22:4f:b8:57:45:c9:83:8a:65:bb:7a:86:b3:
        30:3a:7c:62:d3:b7:08:34:a7:05:0a:44:a7:57:5c:2b:b6:34:
        03:ea:3a:61:06:c9:f2:65:16:f2:20:c5:32:0a:61:20:c9:f7:
        07:2e:e8:d2:f2:67:c4:64
-----BEGIN CERTIFICATE-----
MIID7DCCAdSgAwIBAgIBFjANBgkqhkiG9w0BAQUFADBaMQswCQYDVQQGEwJLUjET
MBEGA1UECBMKS3l1bmdHaS1EbzERMA8GA1UEBxMIU3V3b24tU2kxFjAUBgNVBAoT
DVNhbXN1bmcgRWxlYy4xCzAJBgNVBAMTAkNBMB4XDTA5MDMxNDEzNDgxMloXDTEw
MDMxNDEzNDgxMlowYzELMAkGA1UEBhMCS1IxEzARBgNVBAgTCkt5dW5nR2ktRG8x
FjAUBgNVBAoTDVNhbXN1bmcgRWxlYy4xJzAlBgNVBAMTHkZpcnN0IGNlcnRpZmlj
YXRlIHRvIHRlc3QgT0NTUDCBnzANBgkqhkiG9w0BAQEFAAOBjQAwgYkCgYEAwKlR
YxnizPOdGdh1kKsTQKM/ndzvSEINADbb6mj9uRU0qa8PUitXLgN0E0G0WWl+9uFU
Qo3D9IUr/weXpC9b5BO+cu9l51m+7RRxgswJA1CZZgg0GkFF5uM3mDJqFdQyY/cm
bFrtRb27qr4zS5zLsgMT4y1vYVcq6OhED1nq578CAwEAAaM4MDYwNAYIKwYBBQUH
AQEEKDAmMCQGCCsGAQUFBzABhhhodHRwOi8vMTI3LjAuMC4xOjg1LzAwMDcwDQYJ
KoZIhvcNAQEFBQADggIBALGezo0Jnvkhb77yp1RuJILjK4i3DeDiSTO0i61gccwg
I1fPF6hGwKcaX46NGswLG9qkNLHXdBun5HGhLf0uGFECLJP/qfeYve1rTFWOJPaX
joqAVlJ6F9qUlvoneIxlQKax0ioT/nbADPIEP9GIJcNaBcoz17sn4ovo1AD9/Lao
nSfC+eqYMnmFnaPnv3hl6BXvSUiHqbK0xMvsp9qQNtbFb//DhRkTCydq08Tnl2II
SaPpIpo80ZGPbo6HRw44Q45ahPacJMGfkCncOHNyfT/Wf92z0R3Pe7wxpmu0vhAG
lGmgFu+96eeiixjhECd/nYr5YBjVk1TWTsIxvzcA29XPhdrpe+S7SPOlbrpIG1Bq
EJn4d4GVeBvQ/tB0RygFNDIyXx9SQoX4evGoh/8vbOyDCZGFCkPONaJ/lLaucJS2
D8nHiu58pzKK7sPh7gE0wbjbmIBMrF+sGAL69cE23zlXV4G5JtCBDnV5GCEppsvr
l1jy3YqIwaLHVJ+XibHv/xFfGArNJT7YNQdFVR67olT8ZqwPrCp31hqkRMxaSTdF
cFvJPSxtwX6vTZxPKqLZAT3if6TyS9dgsQajtEY1Qxy+eUanilDuIk+4V0XJg4pl
u3qGszA6fGLTtwg0pwUKRKdXXCu2NAPqOmEGyfJlFvIgxTIKYSDJ9wcu6NLyZ8Rk
-----END CERTIFICATE-----
