Certificate:
    Data:
        Version: 3 (0x2)
        Serial Number: 14 (0xe)
        Signature Algorithm: sha1WithRSAEncryption
        Issuer: C=KR, ST=KyungGi-Do, L=Suwon-Si, O=Samsung Elec., CN=CA
        Validity
            Not Before: Mar 13 03:16:42 2009 GMT
            Not After : Mar 11 03:16:42 2019 GMT
        Subject: C=KR, ST=KyungGi-Do, O=Samsung Elec., CN=Second Responder Certificate
        Subject Public Key Info:
            Public Key Algorithm: rsaEncryption
            RSA Public Key: (1024 bit)
                Modulus (1024 bit):
                    00:aa:01:31:49:34:0e:6c:b5:25:a0:da:35:71:cf:
                    9d:a7:c4:ad:27:31:ee:c2:46:fe:03:8f:4f:ed:f7:
                    75:d5:b9:01:c6:a9:8f:8d:17:ca:8c:82:82:63:ed:
                    08:d4:05:9e:31:3c:c9:66:59:41:72:63:8e:01:3e:
                    a2:39:d1:9c:51:9c:c5:9a:ad:72:0d:e6:2b:19:ba:
                    45:a6:18:f6:e2:79:72:4b:5e:79:74:38:b5:86:9c:
                    57:bb:2c:e8:f5:57:9b:32:34:86:2a:2f:40:2f:5d:
                    dd:9c:f5:63:d4:2e:ad:b1:d3:25:22:7c:86:89:84:
                    c9:26:70:3c:c8:11:64:ed:47
                Exponent: 65537 (0x10001)
        X509v3 extensions:
            X509v3 Extended Key Usage: 
                OCSP Signing
    Signature Algorithm: sha1WithRSAEncryption
        b8:56:6b:f9:21:8a:79:e8:53:38:c7:84:e0:c3:96:6c:f3:71:
        95:dc:31:9a:ef:fc:fb:b5:18:c6:35:26:3d:ee:4d:00:9c:e4:
        10:25:a9:2e:a0:41:8a:37:a9:91:02:9c:52:ec:0d:7a:bf:e9:
        bb:54:6d:4a:92:5c:9d:c8:01:17:a3:8f:25:fd:32:a7:11:e4:
        77:fd:ce:7c:4b:c9:ae:32:e6:d5:25:cc:a4:97:bb:07:f3:1d:
        f0:11:8a:d8:f1:37:e6:4f:3c:99:30:44:20:04:3d:82:fc:87:
        60:24:21:a9:46:e7:d8:41:2c:76:d8:a5:58:44:ca:85:71:31:
        24:f2:45:7d:fb:70:db:1b:93:42:21:85:69:5d:19:13:85:7c:
        85:6c:83:8f:bf:c1:a7:3d:49:b9:68:4e:a2:12:2e:9d:89:c3:
        a7:1b:86:71:e4:cc:29:79:0e:b1:19:07:ca:2d:b8:95:87:f4:
        8d:4a:be:06:0d:d0:e1:1a:ed:ea:a2:52:f3:f2:7b:1f:3c:10:
        c6:67:be:00:3a:36:ca:ad:93:d4:ee:b3:9d:e8:47:6e:bb:6f:
        12:6b:cf:3d:73:22:a3:15:e0:e1:51:88:86:e6:2a:23:ee:e1:
        32:55:0c:b8:73:35:f7:42:9e:4c:c4:ea:f5:3c:d5:20:ef:32:
        27:c2:b5:9b:ad:f0:a8:bf:72:5c:5b:fc:41:e4:a0:6d:b2:4d:
        c0:69:a5:b2:dc:70:d6:90:ae:2e:81:41:f4:ec:33:c5:43:4e:
        70:eb:1c:17:4c:d9:ed:8f:97:2e:20:17:9d:40:bc:d1:ae:74:
        21:8b:ab:cc:b0:86:5a:cd:42:9c:df:13:16:59:56:27:be:26:
        bb:92:5f:7a:86:9e:f5:19:45:1f:36:8a:e3:55:5d:89:3b:2f:
        ed:13:9c:e7:ae:bd:eb:34:31:a2:02:70:0c:a7:32:d3:d1:be:
        c0:2f:0e:10:b7:43:2d:ab:68:70:b4:a1:e1:25:c1:ae:1c:43:
        32:c0:90:81:c1:39:0b:27:e7:14:c9:28:db:40:0f:1f:9c:ce:
        1b:8b:26:ca:b8:41:01:e7:cb:92:b0:8a:14:00:f3:e0:3c:84:
        d3:2c:45:19:15:01:02:ab:bd:e8:19:6b:d7:7e:c6:5a:a9:3a:
        d5:00:23:15:2a:e9:93:7d:11:75:cc:c6:c3:8e:5f:3f:d3:3f:
        05:9f:40:12:a9:a8:bc:50:dc:42:02:62:7d:00:6a:ef:08:e1:
        69:87:4d:2a:9b:54:49:35:80:58:12:92:a1:33:65:20:5f:29:
        cf:ab:03:8e:0b:91:08:9e:52:d6:b2:d7:ec:bb:38:9b:d5:5d:
        f6:b2:89:f5:00:bb:0f:f2
-----BEGIN CERTIFICATE-----
MIIDyTCCAbGgAwIBAgIBDjANBgkqhkiG9w0BAQUFADBaMQswCQYDVQQGEwJLUjET
MBEGA1UECBMKS3l1bmdHaS1EbzERMA8GA1UEBxMIU3V3b24tU2kxFjAUBgNVBAoT
DVNhbXN1bmcgRWxlYy4xCzAJBgNVBAMTAkNBMB4XDTA5MDMxMzAzMTY0MloXDTE5
MDMxMTAzMTY0MlowYTELMAkGA1UEBhMCS1IxEzARBgNVBAgTCkt5dW5nR2ktRG8x
FjAUBgNVBAoTDVNhbXN1bmcgRWxlYy4xJTAjBgNVBAMTHFNlY29uZCBSZXNwb25k
ZXIgQ2VydGlmaWNhdGUwgZ8wDQYJKoZIhvcNAQEBBQADgY0AMIGJAoGBAKoBMUk0
Dmy1JaDaNXHPnafErScx7sJG/gOPT+33ddW5Acapj40XyoyCgmPtCNQFnjE8yWZZ
QXJjjgE+ojnRnFGcxZqtcg3mKxm6RaYY9uJ5ckteeXQ4tYacV7ss6PVXmzI0hiov
QC9d3Zz1Y9QurbHTJSJ8homEySZwPMgRZO1HAgMBAAGjFzAVMBMGA1UdJQQMMAoG
CCsGAQUFBwMJMA0GCSqGSIb3DQEBBQUAA4ICAQC4Vmv5IYp56FM4x4Tgw5Zs83GV
3DGa7/z7tRjGNSY97k0AnOQQJakuoEGKN6mRApxS7A16v+m7VG1KklydyAEXo48l
/TKnEeR3/c58S8muMubVJcykl7sH8x3wEYrY8TfmTzyZMEQgBD2C/IdgJCGpRufY
QSx22KVYRMqFcTEk8kV9+3DbG5NCIYVpXRkThXyFbIOPv8GnPUm5aE6iEi6dicOn
G4Zx5MwpeQ6xGQfKLbiVh/SNSr4GDdDhGu3qolLz8nsfPBDGZ74AOjbKrZPU7rOd
6Eduu28Sa889cyKjFeDhUYiG5ioj7uEyVQy4czX3Qp5MxOr1PNUg7zInwrWbrfCo
v3JcW/xB5KBtsk3AaaWy3HDWkK4ugUH07DPFQ05w6xwXTNntj5cuIBedQLzRrnQh
i6vMsIZazUKc3xMWWVYnvia7kl96hp71GUUfNorjVV2JOy/tE5znrr3rNDGiAnAM
pzLT0b7ALw4Qt0Mtq2hwtKHhJcGuHEMywJCBwTkLJ+cUySjbQA8fnM4biybKuEEB
58uSsIoUAPPgPITTLEUZFQECq73oGWvXfsZaqTrVACMVKumTfRF1zMbDjl8/0z8F
n0ASqai8UNxCAmJ9AGrvCOFph00qm1RJNYBYEpKhM2UgXynPqwOOC5EInlLWstfs
uzib1V32son1ALsP8g==
-----END CERTIFICATE-----
