Certificate:
    Data:
        Version: 3 (0x2)
        Serial Number: 7 (0x7)
        Signature Algorithm: sha1WithRSAEncryption
        Issuer: C=KR, ST=KyungGi-Do, L=Suwon-Si, O=Samsung Elec., CN=CA
        Validity
            Not Before: Mar 10 00:14:51 2009 GMT
            Not After : Mar 10 00:14:51 2010 GMT
        Subject: C=KR, ST=KyungGi-Do, O=Samsung Elec., CN=OCSP Responder
        Subject Public Key Info:
            Public Key Algorithm: rsaEncryption
            RSA Public Key: (1024 bit)
                Modulus (1024 bit):
                    00:b9:0e:80:20:fc:74:49:08:cb:83:87:76:e4:42:
                    03:42:6e:56:1b:ae:73:43:9b:a6:cf:5d:33:1d:37:
                    cf:b5:22:bc:79:5e:6a:69:02:3e:e2:08:c5:f5:be:
                    ee:ef:df:4f:85:41:a2:5f:d3:76:39:3f:61:56:14:
                    1f:c1:cc:ec:45:e3:b2:e2:b0:e8:20:9f:a9:e7:8a:
                    b8:ed:3f:e4:6f:86:d8:e5:d5:3b:fe:47:e8:8f:51:
                    ee:dd:b6:7f:36:6b:c7:75:f7:78:04:df:ac:51:b3:
                    25:65:04:ab:0d:ce:db:5e:3a:db:6a:8f:da:69:46:
                    c7:92:f2:b3:ba:6c:90:3d:71
                Exponent: 65537 (0x10001)
        X509v3 extensions:
            X509v3 Extended Key Usage: 
                OCSP Signing
    Signature Algorithm: sha1WithRSAEncryption
        2d:28:82:cc:79:30:2e:b5:8e:4f:d9:3b:f4:8b:c8:a3:e6:3b:
        cb:2c:0f:97:1c:8b:7f:06:e1:5d:3b:ec:af:c5:de:ef:c4:fa:
        0b:63:ee:cb:ad:60:7f:42:6f:82:6d:f2:fb:bb:9a:36:f7:1a:
        6c:9c:82:e8:17:18:41:35:47:72:e8:36:b4:1a:c1:ae:59:7c:
        92:07:62:8f:00:9a:2e:c8:5e:62:20:5f:14:82:0d:fe:de:04:
        c8:b0:b6:03:d4:aa:41:70:4f:f9:05:ba:b5:c7:3c:36:a0:68:
        81:c5:82:91:56:fc:65:fe:73:c4:b3:91:d2:c4:51:16:cb:48:
        32:e3:b1:ea:a4:dc:e0:de:9b:f2:75:22:cd:04:2d:2d:c9:76:
        aa:3b:b8:c6:1a:86:86:1f:a7:11:e0:6d:16:f4:5b:b3:09:1d:
        34:c1:0e:1a:c8:21:82:91:73:bc:e5:c5:cb:d3:ed:46:d5:f5:
        a6:f8:65:a6:91:7b:cd:a9:0d:a6:37:3e:d9:3f:6f:c4:c7:aa:
        d9:95:75:dc:6d:38:9e:54:3d:0f:a1:26:16:28:71:6b:14:9e:
        be:66:8b:f4:71:c1:3e:34:a0:a1:5d:da:31:1c:63:9f:9d:01:
        7f:62:13:9d:3b:74:a2:b3:0a:d5:24:c0:35:07:c0:6d:20:c1:
        2a:21:fb:82:a5:9c:eb:3e:ce:25:57:02:d6:38:77:5e:a0:2a:
        52:0c:f7:3f:f3:d3:aa:0c:53:a9:1c:e9:39:d7:0d:96:28:b8:
        e2:e9:1c:e3:92:12:1e:e1:3e:44:5a:fb:25:1e:2c:74:a9:93:
        24:a0:f0:02:63:bf:e2:45:a0:c5:6f:40:e4:3b:b2:b1:f1:0a:
        19:89:b9:54:d6:61:21:3d:7b:4b:91:fe:d9:f0:e1:48:20:d9:
        0b:e2:be:dd:f7:5b:6f:c8:76:ca:74:9f:a5:4a:9a:9c:1d:f0:
        ec:40:72:82:67:fc:2a:9f:4e:f1:7f:e4:b5:7e:c0:3f:22:36:
        18:c3:48:88:7f:0c:2d:26:cc:40:c5:82:bd:23:e5:6c:ce:3c:
        27:19:27:fe:7b:1b:fa:cb:38:0a:9f:a6:44:4b:c2:22:63:68:
        3c:fa:86:11:af:5d:05:7c:5b:fd:26:9a:78:18:c7:f6:1e:1f:
        69:b9:ba:71:3b:dc:95:c1:3f:59:17:42:f1:48:2b:10:5f:67:
        46:32:37:4a:1a:85:d0:00:81:92:50:6c:29:80:e1:b5:bf:52:
        a8:79:c0:5d:b9:36:e3:f7:d5:69:dc:de:54:13:c0:d3:6e:7a:
        9c:a8:e9:e4:f6:57:ed:aa:bd:6e:c1:c5:35:ed:72:17:65:e3:
        cd:f0:a3:a0:10:95:b8:70
-----BEGIN CERTIFICATE-----
MIIDuzCCAaOgAwIBAgIBBzANBgkqhkiG9w0BAQUFADBaMQswCQYDVQQGEwJLUjET
MBEGA1UECBMKS3l1bmdHaS1EbzERMA8GA1UEBxMIU3V3b24tU2kxFjAUBgNVBAoT
DVNhbXN1bmcgRWxlYy4xCzAJBgNVBAMTAkNBMB4XDTA5MDMxMDAwMTQ1MVoXDTEw
MDMxMDAwMTQ1MVowUzELMAkGA1UEBhMCS1IxEzARBgNVBAgTCkt5dW5nR2ktRG8x
FjAUBgNVBAoTDVNhbXN1bmcgRWxlYy4xFzAVBgNVBAMTDk9DU1AgUmVzcG9uZGVy
MIGfMA0GCSqGSIb3DQEBAQUAA4GNADCBiQKBgQC5DoAg/HRJCMuDh3bkQgNCblYb
rnNDm6bPXTMdN8+1Irx5XmppAj7iCMX1vu7v30+FQaJf03Y5P2FWFB/BzOxF47Li
sOggn6nnirjtP+Rvhtjl1Tv+R+iPUe7dtn82a8d193gE36xRsyVlBKsNztteOttq
j9ppRseS8rO6bJA9cQIDAQABoxcwFTATBgNVHSUEDDAKBggrBgEFBQcDCTANBgkq
hkiG9w0BAQUFAAOCAgEALSiCzHkwLrWOT9k79IvIo+Y7yywPlxyLfwbhXTvsr8Xe
78T6C2Puy61gf0Jvgm3y+7uaNvcabJyC6BcYQTVHcug2tBrBrll8kgdijwCaLshe
YiBfFIIN/t4EyLC2A9SqQXBP+QW6tcc8NqBogcWCkVb8Zf5zxLOR0sRRFstIMuOx
6qTc4N6b8nUizQQtLcl2qju4xhqGhh+nEeBtFvRbswkdNMEOGsghgpFzvOXFy9Pt
RtX1pvhlppF7zakNpjc+2T9vxMeq2ZV13G04nlQ9D6EmFihxaxSevmaL9HHBPjSg
oV3aMRxjn50Bf2ITnTt0orMK1STANQfAbSDBKiH7gqWc6z7OJVcC1jh3XqAqUgz3
P/PTqgxTqRzpOdcNlii44ukc45ISHuE+RFr7JR4sdKmTJKDwAmO/4kWgxW9A5Duy
sfEKGYm5VNZhIT17S5H+2fDhSCDZC+K+3fdbb8h2ynSfpUqanB3w7EBygmf8Kp9O
8X/ktX7APyI2GMNIiH8MLSbMQMWCvSPlbM48Jxkn/nsb+ss4Cp+mREvCImNoPPqG
Ea9dBXxb/SaaeBjH9h4fabm6cTvclcE/WRdC8UgrEF9nRjI3ShqF0ACBklBsKYDh
tb9SqHnAXbk24/fVadzeVBPA0256nKjp5PZX7aq9bsHFNe1yF2XjzfCjoBCVuHA=
-----END CERTIFICATE-----
