Certificate:
    Data:
        Version: 3 (0x2)
        Serial Number: 52 (0x34)
        Signature Algorithm: sha1WithRSAEncryption
        Issuer: C=KR, ST=KyungGi-Do, O=Samsung Elec., CN=Cert Chain 6
        Validity
            Not Before: Mar 24 07:09:53 2009 GMT
            Not After : Mar 24 07:09:53 2010 GMT
        Subject: C=KR, ST=KyungGi-Do, O=Samsung Elec., CN=Cert Chain 7
        Subject Public Key Info:
            Public Key Algorithm: rsaEncryption
            RSA Public Key: (1024 bit)
                Modulus (1024 bit):
                    00:d5:c2:18:f3:fc:0a:3c:4e:f7:2b:c6:fd:1f:d7:
                    13:bb:35:74:6e:ca:5d:ab:09:67:21:d0:ed:a7:e8:
                    99:7e:79:52:b8:32:3d:2b:5f:1b:78:0e:aa:2b:b6:
                    e7:03:ec:f5:7e:b4:54:3b:87:d9:02:1e:c7:e6:04:
                    cf:27:7b:36:e6:2f:8e:8e:94:f7:5b:c6:6e:51:2c:
                    de:17:da:04:45:ea:31:d0:95:c4:50:3c:16:8e:21:
                    c7:f0:0e:b5:86:c8:58:48:a6:0d:4d:a2:a6:8c:81:
                    7a:67:89:43:56:1c:ca:e3:69:8a:08:05:57:b7:6d:
                    03:c2:04:af:7b:61:ee:84:27
                Exponent: 65537 (0x10001)
        X509v3 extensions:
            Authority Information Access: 
                OCSP - URI:http://127.0.0.1:89/0002

    Signature Algorithm: sha1WithRSAEncryption
        49:e7:f8:dc:ad:06:43:cb:d8:67:e6:e7:c0:7e:dd:a8:21:cd:
        b9:53:a8:d8:7a:24:df:dc:9c:bb:55:1d:d8:ca:44:0b:0f:fb:
        f8:db:61:2a:97:79:21:e6:96:2a:8c:76:c4:eb:ad:77:45:53:
        f5:e2:de:29:7d:29:88:3a:d4:a3:a8:5a:dc:37:24:43:d1:57:
        a5:5b:0b:3e:05:2d:0a:1a:0e:18:37:50:cc:36:54:85:37:28:
        50:c8:61:c7:94:48:a0:60:ab:68:b0:b2:a8:61:14:5e:4a:dd:
        04:8a:1a:69:01:45:e2:c6:e2:cb:15:e6:01:49:98:3c:5a:5d:
        2a:d4
-----BEGIN CERTIFICATE-----
MIICUDCCAbmgAwIBAgIBNDANBgkqhkiG9w0BAQUFADBRMQswCQYDVQQGEwJLUjET
MBEGA1UECBMKS3l1bmdHaS1EbzEWMBQGA1UEChMNU2Ftc3VuZyBFbGVjLjEVMBMG
A1UEAxMMQ2VydCBDaGFpbiA2MB4XDTA5MDMyNDA3MDk1M1oXDTEwMDMyNDA3MDk1
M1owUTELMAkGA1UEBhMCS1IxEzARBgNVBAgTCkt5dW5nR2ktRG8xFjAUBgNVBAoT
DVNhbXN1bmcgRWxlYy4xFTATBgNVBAMTDENlcnQgQ2hhaW4gNzCBnzANBgkqhkiG
9w0BAQEFAAOBjQAwgYkCgYEA1cIY8/wKPE73K8b9H9cTuzV0bspdqwlnIdDtp+iZ
fnlSuDI9K18beA6qK7bnA+z1frRUO4fZAh7H5gTPJ3s25i+OjpT3W8ZuUSzeF9oE
Reox0JXEUDwWjiHH8A61hshYSKYNTaKmjIF6Z4lDVhzK42mKCAVXt20DwgSve2Hu
hCcCAwEAAaM4MDYwNAYIKwYBBQUHAQEEKDAmMCQGCCsGAQUFBzABhhhodHRwOi8v
MTI3LjAuMC4xOjg5LzAwMDIwDQYJKoZIhvcNAQEFBQADgYEASef43K0GQ8vYZ+bn
wH7dqCHNuVOo2Hok39ycu1Ud2MpECw/7+NthKpd5IeaWKox2xOutd0VT9eLeKX0p
iDrUo6ha3DckQ9FXpVsLPgUtChoOGDdQzDZUhTcoUMhhx5RIoGCraLCyqGEUXkrd
BIoaaQFF4sbiyxXmAUmYPFpdKtQ=
-----END CERTIFICATE-----
