Certificate:
    Data:
        Version: 3 (0x2)
        Serial Number: 55 (0x37)
        Signature Algorithm: sha1WithRSAEncryption
        Issuer: C=KR, ST=KyungGi-Do, O=Samsung Elec., CN=Cert Chain 9
        Validity
            Not Before: Mar 24 07:09:56 2009 GMT
            Not After : Mar 24 07:09:56 2010 GMT
        Subject: C=KR, ST=KyungGi-Do, O=Samsung Elec., CN=Cert Chain 10
        Subject Public Key Info:
            Public Key Algorithm: rsaEncryption
            RSA Public Key: (1024 bit)
                Modulus (1024 bit):
                    00:da:7a:ea:e9:4d:f1:46:ae:bd:f9:0c:81:de:fd:
                    f4:cf:13:fc:74:54:1b:f7:fb:d3:b0:f6:ae:32:fe:
                    17:0d:df:91:e2:77:c7:b7:64:8b:53:48:b2:50:c6:
                    10:d3:4d:c2:c2:9e:53:d1:af:3b:fe:d0:c3:64:bf:
                    95:48:a3:5e:85:29:f7:c3:19:4c:54:09:7a:42:81:
                    bc:b9:f0:63:eb:0a:90:3c:9d:fa:25:b8:ee:80:50:
                    c1:b9:c2:8d:28:eb:a4:1b:88:b5:2f:0c:30:04:8c:
                    97:a8:a9:9a:27:7c:5a:79:03:49:fc:ec:81:39:61:
                    1c:52:9b:97:9a:f0:54:db:2f
                Exponent: 65537 (0x10001)
        X509v3 extensions:
            Authority Information Access: 
                OCSP - URI:http://127.0.0.1:89/0002

    Signature Algorithm: sha1WithRSAEncryption
        81:7f:37:9d:a6:8f:7d:f1:03:b0:78:a3:44:7e:c1:31:27:f0:
        73:51:eb:55:76:3f:1b:a5:59:0f:5b:ab:2f:ff:72:9d:8a:46:
        af:30:a4:c1:6a:25:1c:04:b9:22:14:b8:39:52:f1:4f:f0:24:
        eb:f0:5f:62:79:24:c2:ec:84:92:87:5d:9c:05:87:e8:b1:71:
        a7:30:fc:03:2d:9f:c5:3b:7c:58:7e:7a:86:75:50:ad:14:5e:
        f9:69:c4:49:1e:58:33:da:5f:eb:bc:c5:ac:10:2a:dd:3c:87:
        1c:0f:aa:37:93:c0:68:4c:3d:b4:0c:30:78:63:af:8a:f4:80:
        e8:8e
-----BEGIN CERTIFICATE-----
MIICUTCCAbqgAwIBAgIBNzANBgkqhkiG9w0BAQUFADBRMQswCQYDVQQGEwJLUjET
MBEGA1UECBMKS3l1bmdHaS1EbzEWMBQGA1UEChMNU2Ftc3VuZyBFbGVjLjEVMBMG
A1UEAxMMQ2VydCBDaGFpbiA5MB4XDTA5MDMyNDA3MDk1NloXDTEwMDMyNDA3MDk1
NlowUjELMAkGA1UEBhMCS1IxEzARBgNVBAgTCkt5dW5nR2ktRG8xFjAUBgNVBAoT
DVNhbXN1bmcgRWxlYy4xFjAUBgNVBAMTDUNlcnQgQ2hhaW4gMTAwgZ8wDQYJKoZI
hvcNAQEBBQADgY0AMIGJAoGBANp66ulN8UauvfkMgd799M8T/HRUG/f707D2rjL+
Fw3fkeJ3x7dki1NIslDGENNNwsKeU9GvO/7Qw2S/lUijXoUp98MZTFQJekKBvLnw
Y+sKkDyd+iW47oBQwbnCjSjrpBuItS8MMASMl6ipmid8WnkDSfzsgTlhHFKbl5rw
VNsvAgMBAAGjODA2MDQGCCsGAQUFBwEBBCgwJjAkBggrBgEFBQcwAYYYaHR0cDov
LzEyNy4wLjAuMTo4OS8wMDAyMA0GCSqGSIb3DQEBBQUAA4GBAIF/N52mj33xA7B4
o0R+wTEn8HNR61V2PxulWQ9bqy//cp2KRq8wpMFqJRwEuSIUuDlS8U/wJOvwX2J5
JMLshJKHXZwFh+ixcacw/AMtn8U7fFh+eoZ1UK0UXvlpxEkeWDPaX+u8xawQKt08
hxwPqjeTwGhMPbQMMHhjr4r0gOiO
-----END CERTIFICATE-----
