Certificate:
    Data:
        Version: 3 (0x2)
        Serial Number: 60 (0x3c)
        Signature Algorithm: sha1WithRSAEncryption
        Issuer: C=KR, ST=KyungGi-Do, O=Samsung Elec., CN=Cert Chain No AIA 5
        Validity
            Not Before: Mar 24 07:21:50 2009 GMT
            Not After : Mar 24 07:21:50 2010 GMT
        Subject: C=KR, ST=KyungGi-Do, O=Samsung Elec., CN=Cert Chain No AIA 6
        Subject Public Key Info:
            Public Key Algorithm: rsaEncryption
            RSA Public Key: (1024 bit)
                Modulus (1024 bit):
                    00:96:4e:86:e9:ca:b8:83:48:47:72:fa:ad:01:a8:
                    26:c0:c6:09:10:ef:37:e0:62:e6:6b:e1:97:9d:15:
                    c2:e5:88:fa:ee:50:81:ff:eb:fb:48:80:6f:db:41:
                    b7:51:58:64:eb:8d:b7:2f:03:1a:0b:36:db:53:1d:
                    19:7c:49:f9:76:0c:39:36:f3:4f:e9:f6:c7:90:5f:
                    02:dd:dc:e7:51:c2:44:cc:9f:87:4c:13:d4:e5:91:
                    1c:4a:ed:33:a2:80:76:c8:56:7e:fc:c9:73:2b:78:
                    d9:7e:a3:b2:23:cd:69:ca:a1:a7:8c:e3:8c:97:3e:
                    71:ac:c8:04:56:bd:97:cd:d1
                Exponent: 65537 (0x10001)
        X509v3 extensions:
            Authority Information Access: 
                OCSP - URI:http://127.0.0.1:89/0002

    Signature Algorithm: sha1WithRSAEncryption
        6f:e5:2b:c2:3c:65:22:24:f1:1c:a4:c4:c1:35:73:40:a0:8a:
        f0:13:06:c7:46:19:83:51:e0:c6:9f:d8:49:93:59:41:3f:71:
        2d:31:67:55:98:49:42:aa:07:42:81:b5:4f:29:11:36:3f:23:
        47:75:75:89:18:95:a4:ea:af:9f:4f:b2:0e:0b:21:4e:74:4f:
        2c:18:74:c9:05:21:55:e7:e7:b2:85:9a:4f:70:ce:d1:89:1d:
        9e:f8:02:30:d0:60:c5:2a:78:87:67:9e:04:3e:8a:7b:f9:df:
        0b:4e:41:3a:81:fa:35:fa:d7:77:5f:7c:1f:cc:59:da:94:9b:
        94:55
-----BEGIN CERTIFICATE-----
MIICXjCCAcegAwIBAgIBPDANBgkqhkiG9w0BAQUFADBYMQswCQYDVQQGEwJLUjET
MBEGA1UECBMKS3l1bmdHaS1EbzEWMBQGA1UEChMNU2Ftc3VuZyBFbGVjLjEcMBoG
A1UEAxMTQ2VydCBDaGFpbiBObyBBSUEgNTAeFw0wOTAzMjQwNzIxNTBaFw0xMDAz
MjQwNzIxNTBaMFgxCzAJBgNVBAYTAktSMRMwEQYDVQQIEwpLeXVuZ0dpLURvMRYw
FAYDVQQKEw1TYW1zdW5nIEVsZWMuMRwwGgYDVQQDExNDZXJ0IENoYWluIE5vIEFJ
QSA2MIGfMA0GCSqGSIb3DQEBAQUAA4GNADCBiQKBgQCWTobpyriDSEdy+q0BqCbA
xgkQ7zfgYuZr4ZedFcLliPruUIH/6/tIgG/bQbdRWGTrjbcvAxoLNttTHRl8Sfl2
DDk280/p9seQXwLd3OdRwkTMn4dME9TlkRxK7TOigHbIVn78yXMreNl+o7IjzWnK
oaeM44yXPnGsyARWvZfN0QIDAQABozgwNjA0BggrBgEFBQcBAQQoMCYwJAYIKwYB
BQUHMAGGGGh0dHA6Ly8xMjcuMC4wLjE6ODkvMDAwMjANBgkqhkiG9w0BAQUFAAOB
gQBv5SvCPGUiJPEcpMTBNXNAoIrwEwbHRhmDUeDGn9hJk1lBP3EtMWdVmElCqgdC
gbVPKRE2PyNHdXWJGJWk6q+fT7IOCyFOdE8sGHTJBSFV5+eyhZpPcM7RiR2e+AIw
0GDFKniHZ54EPop7+d8LTkE6gfo1+td3X3wfzFnalJuUVQ==
-----END CERTIFICATE-----
