Certificate:
    Data:
        Version: 3 (0x2)
        Serial Number: 61 (0x3d)
        Signature Algorithm: sha1WithRSAEncryption
        Issuer: C=KR, ST=KyungGi-Do, O=Samsung Elec., CN=Cert Chain No AIA 6
        Validity
            Not Before: Mar 24 07:21:51 2009 GMT
            Not After : Mar 24 07:21:51 2010 GMT
        Subject: C=KR, ST=KyungGi-Do, O=Samsung Elec., CN=Cert Chain No AIA 7
        Subject Public Key Info:
            Public Key Algorithm: rsaEncryption
            RSA Public Key: (1024 bit)
                Modulus (1024 bit):
                    00:b4:5b:fe:48:10:2b:eb:58:af:c6:0e:57:2a:a5:
                    5c:cc:57:85:44:f2:d9:d1:43:84:d3:40:8b:f7:7a:
                    e0:e8:b1:9d:e8:f4:b1:45:c6:67:14:9b:a5:a8:e2:
                    8f:cb:31:a6:db:61:90:0d:aa:0a:9e:26:dc:4b:0b:
                    33:a2:7c:07:72:91:ee:6a:ec:77:34:f4:7e:a5:0e:
                    39:13:a8:d5:86:86:12:5b:a4:8b:38:91:57:24:8d:
                    a9:3b:f8:f1:a6:48:89:20:a9:5b:b3:fe:ca:56:f0:
                    ca:d1:ec:99:9c:57:6a:df:8e:23:a1:7e:be:5f:7c:
                    cf:a9:db:3f:b8:dc:a1:9a:39
                Exponent: 65537 (0x10001)
        X509v3 extensions:
            Authority Information Access: 
                OCSP - URI:http://127.0.0.1:89/0002

    Signature Algorithm: sha1WithRSAEncryption
        1d:2e:83:cb:9e:92:3e:d2:0a:fb:74:87:66:3d:57:84:09:11:
        4a:2a:68:0e:da:9e:4d:7b:25:af:56:fa:3c:d5:4c:02:fe:43:
        dd:c3:66:c9:5d:55:50:40:15:8f:06:74:13:83:27:c5:19:7e:
        55:f3:fa:26:ec:3e:c0:1a:5d:20:ee:09:af:38:83:f8:0e:da:
        bf:07:87:07:a5:70:79:21:2c:38:5b:e0:f8:d1:57:0f:9b:d1:
        ee:a3:86:02:b5:e0:5b:64:08:5f:64:8b:43:65:ac:60:8a:c9:
        6f:47:37:66:61:c1:74:b0:74:0a:24:12:36:c1:28:58:b6:04:
        9b:4c
-----BEGIN CERTIFICATE-----
MIICXjCCAcegAwIBAgIBPTANBgkqhkiG9w0BAQUFADBYMQswCQYDVQQGEwJLUjET
MBEGA1UECBMKS3l1bmdHaS1EbzEWMBQGA1UEChMNU2Ftc3VuZyBFbGVjLjEcMBoG
A1UEAxMTQ2VydCBDaGFpbiBObyBBSUEgNjAeFw0wOTAzMjQwNzIxNTFaFw0xMDAz
MjQwNzIxNTFaMFgxCzAJBgNVBAYTAktSMRMwEQYDVQQIEwpLeXVuZ0dpLURvMRYw
FAYDVQQKEw1TYW1zdW5nIEVsZWMuMRwwGgYDVQQDExNDZXJ0IENoYWluIE5vIEFJ
QSA3MIGfMA0GCSqGSIb3DQEBAQUAA4GNADCBiQKBgQC0W/5IECvrWK/GDlcqpVzM
V4VE8tnRQ4TTQIv3euDosZ3o9LFFxmcUm6Wo4o/LMabbYZANqgqeJtxLCzOifAdy
ke5q7Hc09H6lDjkTqNWGhhJbpIs4kVckjak7+PGmSIkgqVuz/spW8MrR7JmcV2rf
jiOhfr5ffM+p2z+43KGaOQIDAQABozgwNjA0BggrBgEFBQcBAQQoMCYwJAYIKwYB
BQUHMAGGGGh0dHA6Ly8xMjcuMC4wLjE6ODkvMDAwMjANBgkqhkiG9w0BAQUFAAOB
gQAdLoPLnpI+0gr7dIdmPVeECRFKKmgO2p5NeyWvVvo81UwC/kPdw2bJXVVQQBWP
BnQTgyfFGX5V8/om7D7AGl0g7gmvOIP4Dtq/B4cHpXB5ISw4W+D40VcPm9Huo4YC
teBbZAhfZItDZaxgislvRzdmYcF0sHQKJBI2wShYtgSbTA==
-----END CERTIFICATE-----
