Certificate:
    Data:
        Version: 3 (0x2)
        Serial Number: 62 (0x3e)
        Signature Algorithm: sha1WithRSAEncryption
        Issuer: C=KR, ST=KyungGi-Do, O=Samsung Elec., CN=Cert Chain No AIA 7
        Validity
            Not Before: Mar 24 07:21:52 2009 GMT
            Not After : Mar 24 07:21:52 2010 GMT
        Subject: C=KR, ST=KyungGi-Do, O=Samsung Elec., CN=Cert Chain No AIA 8
        Subject Public Key Info:
            Public Key Algorithm: rsaEncryption
            RSA Public Key: (1024 bit)
                Modulus (1024 bit):
                    00:bc:76:6c:d1:65:bb:c3:98:fa:4d:19:34:a6:43:
                    8a:c1:1d:ff:04:4c:f9:c9:bf:c5:d9:4c:08:94:a2:
                    4c:55:31:09:68:3a:35:61:c6:2e:7d:6a:7a:87:88:
                    ba:21:4c:5e:5e:28:d9:d3:fd:01:bc:4e:e2:55:a8:
                    d7:d5:a0:72:d1:b5:fb:6f:f8:ca:7a:f7:e6:89:b0:
                    3e:c9:83:e5:fd:8d:a9:fc:0a:fd:a0:dd:a2:33:17:
                    4e:a0:0e:37:22:b2:ef:27:e4:67:d5:58:80:8b:16:
                    a1:a2:56:c3:73:69:7d:ee:47:d9:af:4d:19:7e:9f:
                    2b:08:ad:4b:51:07:40:99:f1
                Exponent: 65537 (0x10001)
        X509v3 extensions:
            Authority Information Access: 
                OCSP - URI:http://127.0.0.1:89/0002

    Signature Algorithm: sha1WithRSAEncryption
        40:8d:52:73:c3:85:6b:6c:4f:54:51:06:eb:d8:cd:40:5d:3d:
        89:c2:06:4d:c6:70:5e:cc:64:40:3f:bb:3e:d4:52:b0:8d:57:
        77:f3:1f:63:89:b3:21:b0:72:c6:ef:97:77:06:90:6f:fd:e8:
        c3:d4:d6:13:f7:18:a8:eb:1e:87:b8:98:20:4a:0b:58:74:81:
        59:eb:6e:50:f3:68:b2:e2:8c:a2:4b:92:c5:fa:e1:4f:43:ae:
        51:ca:a6:c7:2c:40:16:2f:24:d3:a2:91:d5:45:7d:a7:3c:6e:
        65:74:a7:b0:a6:a0:07:d7:1d:3a:2e:51:6e:de:7f:e6:5b:73:
        e2:7d
-----BEGIN CERTIFICATE-----
MIICXjCCAcegAwIBAgIBPjANBgkqhkiG9w0BAQUFADBYMQswCQYDVQQGEwJLUjET
MBEGA1UECBMKS3l1bmdHaS1EbzEWMBQGA1UEChMNU2Ftc3VuZyBFbGVjLjEcMBoG
A1UEAxMTQ2VydCBDaGFpbiBObyBBSUEgNzAeFw0wOTAzMjQwNzIxNTJaFw0xMDAz
MjQwNzIxNTJaMFgxCzAJBgNVBAYTAktSMRMwEQYDVQQIEwpLeXVuZ0dpLURvMRYw
FAYDVQQKEw1TYW1zdW5nIEVsZWMuMRwwGgYDVQQDExNDZXJ0IENoYWluIE5vIEFJ
QSA4MIGfMA0GCSqGSIb3DQEBAQUAA4GNADCBiQKBgQC8dmzRZbvDmPpNGTSmQ4rB
Hf8ETPnJv8XZTAiUokxVMQloOjVhxi59anqHiLohTF5eKNnT/QG8TuJVqNfVoHLR
tftv+Mp69+aJsD7Jg+X9jan8Cv2g3aIzF06gDjcisu8n5GfVWICLFqGiVsNzaX3u
R9mvTRl+nysIrUtRB0CZ8QIDAQABozgwNjA0BggrBgEFBQcBAQQoMCYwJAYIKwYB
BQUHMAGGGGh0dHA6Ly8xMjcuMC4wLjE6ODkvMDAwMjANBgkqhkiG9w0BAQUFAAOB
gQBAjVJzw4VrbE9UUQbr2M1AXT2JwgZNxnBezGRAP7s+1FKwjVd38x9jibMhsHLG
75d3BpBv/ejD1NYT9xio6x6HuJggSgtYdIFZ625Q82iy4oyiS5LF+uFPQ65RyqbH
LEAWLyTTopHVRX2nPG5ldKewpqAH1x06LlFu3n/mW3PifQ==
-----END CERTIFICATE-----
