Certificate:
    Data:
        Version: 3 (0x2)
        Serial Number: 63 (0x3f)
        Signature Algorithm: sha1WithRSAEncryption
        Issuer: C=KR, ST=KyungGi-Do, O=Samsung Elec., CN=Cert Chain No AIA 8
        Validity
            Not Before: Mar 24 07:21:52 2009 GMT
            Not After : Mar 24 07:21:52 2010 GMT
        Subject: C=KR, ST=KyungGi-Do, O=Samsung Elec., CN=Cert Chain No AIA 9
        Subject Public Key Info:
            Public Key Algorithm: rsaEncryption
            RSA Public Key: (1024 bit)
                Modulus (1024 bit):
                    00:a8:70:69:1c:f1:48:a4:71:a5:2b:d0:d8:f1:00:
                    1f:ca:2a:17:d0:3f:4f:1f:43:a0:04:52:3e:28:73:
                    3b:20:03:96:47:99:19:dc:95:35:41:af:03:4e:08:
                    01:c1:d5:08:65:4c:75:9f:29:73:d3:ab:b3:f5:9c:
                    e7:e0:73:a8:4e:be:fd:86:67:f7:f4:20:42:76:39:
                    85:94:91:b8:6c:74:00:c8:c8:8b:d1:24:38:92:dd:
                    74:76:e8:ca:69:f6:96:aa:29:1b:32:4e:d7:65:4d:
                    dc:87:4c:ff:60:dc:44:a5:06:60:2a:2f:48:e6:a0:
                    9c:93:eb:24:ff:74:a5:d0:13
                Exponent: 65537 (0x10001)
        X509v3 extensions:
            Authority Information Access: 
                OCSP - URI:http://127.0.0.1:89/0002

    Signature Algorithm: sha1WithRSAEncryption
        8f:6f:4d:2a:68:f1:d5:08:43:43:3f:5a:53:d8:fe:71:93:e8:
        08:e5:a3:4f:dc:b2:9b:20:89:7c:dd:b0:57:7f:f7:1f:45:09:
        78:c0:ba:99:0e:ab:fe:a5:1c:de:37:f6:dd:9a:b2:f1:9f:f0:
        15:19:4b:6c:32:dc:5f:8e:af:4f:3f:fe:a3:67:ae:78:ba:af:
        cd:41:fd:c9:31:ca:ce:7e:82:2e:c6:40:4d:94:b9:cd:fa:d5:
        a1:b3:b6:10:47:2d:75:f1:37:3f:e9:62:81:a3:ff:7f:72:04:
        f7:26:6d:d4:c0:22:38:a1:6c:64:10:66:fe:0d:95:e7:2e:64:
        c8:d5
-----BEGIN CERTIFICATE-----
MIICXjCCAcegAwIBAgIBPzANBgkqhkiG9w0BAQUFADBYMQswCQYDVQQGEwJLUjET
MBEGA1UECBMKS3l1bmdHaS1EbzEWMBQGA1UEChMNU2Ftc3VuZyBFbGVjLjEcMBoG
A1UEAxMTQ2VydCBDaGFpbiBObyBBSUEgODAeFw0wOTAzMjQwNzIxNTJaFw0xMDAz
MjQwNzIxNTJaMFgxCzAJBgNVBAYTAktSMRMwEQYDVQQIEwpLeXVuZ0dpLURvMRYw
FAYDVQQKEw1TYW1zdW5nIEVsZWMuMRwwGgYDVQQDExNDZXJ0IENoYWluIE5vIEFJ
QSA5MIGfMA0GCSqGSIb3DQEBAQUAA4GNADCBiQKBgQCocGkc8UikcaUr0NjxAB/K
KhfQP08fQ6AEUj4oczsgA5ZHmRnclTVBrwNOCAHB1QhlTHWfKXPTq7P1nOfgc6hO
vv2GZ/f0IEJ2OYWUkbhsdADIyIvRJDiS3XR26Mpp9paqKRsyTtdlTdyHTP9g3ESl
BmAqL0jmoJyT6yT/dKXQEwIDAQABozgwNjA0BggrBgEFBQcBAQQoMCYwJAYIKwYB
BQUHMAGGGGh0dHA6Ly8xMjcuMC4wLjE6ODkvMDAwMjANBgkqhkiG9w0BAQUFAAOB
gQCPb00qaPHVCENDP1pT2P5xk+gI5aNP3LKbIIl83bBXf/cfRQl4wLqZDqv+pRze
N/bdmrLxn/AVGUtsMtxfjq9PP/6jZ654uq/NQf3JMcrOfoIuxkBNlLnN+tWhs7YQ
Ry118Tc/6WKBo/9/cgT3Jm3UwCI4oWxkEGb+DZXnLmTI1Q==
-----END CERTIFICATE-----
