Certificate:
    Data:
        Version: 3 (0x2)
        Serial Number: 1 (0x1)
        Signature Algorithm: sha1WithRSAEncryption
        Issuer: C=KR, ST=KyungGi-Do, L=Suwon-Si, O=Samsung Elec., CN=CA
        Validity
            Not Before: Mar  6 08:00:02 2009 GMT
            Not After : Mar  6 08:00:02 2010 GMT
        Subject: C=KR, ST=KyungGi-Do, O=Samsung Elec., CN=OCSP Responder
        Subject Public Key Info:
            Public Key Algorithm: rsaEncryption
            RSA Public Key: (1024 bit)
                Modulus (1024 bit):
                    00:d4:41:90:ba:e8:97:0c:89:05:f0:95:75:44:ff:
                    f3:c9:b1:68:90:0a:83:a2:30:6d:f4:8d:2d:e1:ec:
                    c7:bd:ba:24:39:bf:ae:29:fa:65:2b:c6:98:ee:13:
                    74:7c:5d:68:36:5b:b4:0c:ae:6b:99:40:b8:39:a2:
                    df:fa:97:e3:62:37:ff:3c:ae:39:6a:1c:77:39:81:
                    2e:9d:c9:a4:30:e0:4c:e6:18:e9:57:04:a1:09:0b:
                    ab:ac:00:9c:ca:65:96:59:1f:e9:21:86:9b:d8:ef:
                    86:db:99:70:1c:39:31:9f:48:f9:02:0d:4d:53:aa:
                    ac:ad:f1:58:ca:84:98:44:95
                Exponent: 65537 (0x10001)
        X509v3 extensions:
            X509v3 Extended Key Usage: 
                OCSP Signing
    Signature Algorithm: sha1WithRSAEncryption
        0e:0d:eb:90:52:0b:d8:81:b9:b1:87:da:b4:c2:18:5b:fc:01:
        bc:de:1b:16:5e:09:e1:a4:76:68:7a:05:e0:77:58:f0:bf:ce:
        8e:52:f1:fb:ab:35:9b:1d:e7:40:14:88:b5:36:0a:1d:b6:70:
        cc:83:bd:2c:2f:7b:9e:fa:33:29:4f:c8:5e:ec:fb:56:90:1b:
        7c:9c:c0:e8:0e:bb:92:dc:20:5f:22:10:d6:c3:68:3d:26:6e:
        f1:3f:df:42:45:f1:82:04:76:ef:3c:a9:d5:be:8e:dd:3b:a8:
        d4:c3:08:51:f9:2e:60:8e:93:4c:c3:e2:93:ea:ef:6c:d0:47:
        f1:f3:15:8e:6e:66:0b:22:36:32:8a:f7:7f:c9:41:d8:d1:69:
        0d:32:62:ea:3c:fe:72:8a:c8:77:ff:5f:a1:4a:59:1b:5a:12:
        7b:a0:52:17:ae:6e:d4:d6:b3:c1:3b:50:26:3e:55:46:37:39:
        50:ea:2b:fd:97:15:ca:ca:fc:a3:dd:9b:72:c9:d8:a9:39:aa:
        e2:77:b1:d1:bd:2c:62:0c:90:72:75:32:e0:18:3d:4b:01:9c:
        e7:69:77:c8:05:1e:49:44:0f:fa:e2:71:0e:6b:b2:99:f6:a8:
        ae:fe:4b:02:73:fa:00:7b:f4:2b:50:44:b2:50:12:2a:82:ee:
        be:da:ff:47:51:b6:95:f7:fb:39:c7:7f:1f:01:b7:5c:19:01:
        87:d8:c0:3d:bf:d5:ca:1d:67:6e:1b:6b:e6:98:8a:81:ab:91:
        53:ef:03:e0:62:17:c2:5f:f5:ed:4b:24:12:10:64:aa:09:bf:
        8b:fa:bb:54:a1:45:6a:7e:0a:f8:85:d2:ae:cc:b5:65:1a:db:
        9b:17:1f:e5:64:f3:1b:8a:be:40:10:28:d9:a5:ac:30:ed:7e:
        fb:40:39:8b:f3:8d:10:1a:db:85:fd:83:a6:89:eb:09:b3:c1:
        a2:3f:b4:a9:35:62:58:24:6a:37:76:a8:e9:80:12:b9:bc:b0:
        db:e3:ba:e4:a2:dc:b9:8f:ac:99:6d:95:44:7b:b1:7e:1b:05:
        c3:79:25:bc:ae:15:4f:7c:f7:b6:70:0d:fb:d7:fc:91:d9:d4:
        52:a3:bb:50:83:a2:2e:c9:ec:26:73:e3:a5:e2:b3:24:87:1e:
        48:28:f5:7c:49:51:51:c4:1f:8e:06:53:cb:3c:49:8d:b9:ae:
        ce:51:a9:85:a8:25:57:02:22:70:17:16:78:29:31:c9:ad:63:
        3f:39:75:1d:c2:ce:7a:0d:85:96:95:3b:01:02:0a:15:8b:ef:
        93:74:65:44:c3:87:19:01:04:0a:87:82:da:66:f6:bd:34:00:
        ab:09:25:e3:20:4d:87:6e
-----BEGIN CERTIFICATE-----
MIIDuzCCAaOgAwIBAgIBATANBgkqhkiG9w0BAQUFADBaMQswCQYDVQQGEwJLUjET
MBEGA1UECBMKS3l1bmdHaS1EbzERMA8GA1UEBxMIU3V3b24tU2kxFjAUBgNVBAoT
DVNhbXN1bmcgRWxlYy4xCzAJBgNVBAMTAkNBMB4XDTA5MDMwNjA4MDAwMloXDTEw
MDMwNjA4MDAwMlowUzELMAkGA1UEBhMCS1IxEzARBgNVBAgTCkt5dW5nR2ktRG8x
FjAUBgNVBAoTDVNhbXN1bmcgRWxlYy4xFzAVBgNVBAMTDk9DU1AgUmVzcG9uZGVy
MIGfMA0GCSqGSIb3DQEBAQUAA4GNADCBiQKBgQDUQZC66JcMiQXwlXVE//PJsWiQ
CoOiMG30jS3h7Me9uiQ5v64p+mUrxpjuE3R8XWg2W7QMrmuZQLg5ot/6l+NiN/88
rjlqHHc5gS6dyaQw4EzmGOlXBKEJC6usAJzKZZZZH+khhpvY74bbmXAcOTGfSPkC
DU1Tqqyt8VjKhJhElQIDAQABoxcwFTATBgNVHSUEDDAKBggrBgEFBQcDCTANBgkq
hkiG9w0BAQUFAAOCAgEADg3rkFIL2IG5sYfatMIYW/wBvN4bFl4J4aR2aHoF4HdY
8L/OjlLx+6s1mx3nQBSItTYKHbZwzIO9LC97nvozKU/IXuz7VpAbfJzA6A67ktwg
XyIQ1sNoPSZu8T/fQkXxggR27zyp1b6O3Tuo1MMIUfkuYI6TTMPik+rvbNBH8fMV
jm5mCyI2Mor3f8lB2NFpDTJi6jz+corId/9foUpZG1oSe6BSF65u1NazwTtQJj5V
Rjc5UOor/ZcVysr8o92bcsnYqTmq4nex0b0sYgyQcnUy4Bg9SwGc52l3yAUeSUQP
+uJxDmuymfaorv5LAnP6AHv0K1BEslASKoLuvtr/R1G2lff7Ocd/HwG3XBkBh9jA
Pb/Vyh1nbhtr5piKgauRU+8D4GIXwl/17UskEhBkqgm/i/q7VKFFan4K+IXSrsy1
ZRrbmxcf5WTzG4q+QBAo2aWsMO1++0A5i/ONEBrbhf2DponrCbPBoj+0qTViWCRq
N3ao6YASubyw2+O65KLcuY+smW2VRHuxfhsFw3klvK4VT3z3tnAN+9f8kdnUUqO7
UIOiLsnsJnPjpeKzJIceSCj1fElRUcQfjgZTyzxJjbmuzlGphaglVwIicBcWeCkx
ya1jPzl1HcLOeg2FlpU7AQIKFYvvk3RlRMOHGQEECoeC2mb2vTQAqwkl4yBNh24=
-----END CERTIFICATE-----
