Certificate:
    Data:
        Version: 3 (0x2)
        Serial Number: 2 (0x2)
        Signature Algorithm: sha1WithRSAEncryption
        Issuer: C=KR, ST=KyungGi-Do, L=Suwon-Si, O=Samsung Elec., CN=CA
        Validity
            Not Before: Mar  9 03:13:15 2009 GMT
            Not After : Mar  9 03:13:15 2010 GMT
        Subject: C=KR, ST=KyungGi-Do, O=Samsung Elec., CN=Certificate for OCSP Client test - IP address as AIA
        Subject Public Key Info:
            Public Key Algorithm: rsaEncryption
            RSA Public Key: (1024 bit)
                Modulus (1024 bit):
                    00:e1:a1:0b:40:23:f4:c2:29:2a:e6:9a:f8:55:86:
                    03:94:76:99:15:00:61:d5:97:00:ca:aa:7e:f6:d1:
                    7b:70:12:40:99:00:01:94:8c:69:7f:c0:fa:d7:72:
                    7d:fc:61:54:3d:ad:02:53:a3:c4:49:24:8b:42:59:
                    61:01:b5:4f:52:83:df:09:de:19:5a:a6:ce:78:7b:
                    1e:fd:03:2a:4e:24:37:89:d8:12:61:c2:f5:49:74:
                    c5:f8:75:7b:02:b2:5a:a8:2d:a3:b3:18:3f:f0:0a:
                    18:e9:f9:e0:92:fa:37:b8:f2:15:99:23:26:07:a1:
                    cb:2e:e3:c6:1f:d8:88:65:cd
                Exponent: 65537 (0x10001)
        X509v3 extensions:
            Authority Information Access: 
                OCSP - IP Address:127.0.0.1

    Signature Algorithm: sha1WithRSAEncryption
        3c:50:d3:19:27:36:33:e5:1d:a9:e0:30:c1:bf:8b:90:6c:ef:
        e6:40:e7:2a:5e:f6:1c:f4:e1:17:f2:2d:50:42:30:e7:68:30:
        d8:ea:a1:bc:92:77:b8:06:cb:f2:d8:b9:bc:26:c1:ff:6f:8c:
        cf:3b:22:a1:2f:07:c4:41:a8:91:4c:fd:1b:c8:85:5c:21:cf:
        03:1b:1a:15:c4:f4:3e:bc:10:8a:27:82:fa:2c:a9:1b:e9:07:
        72:bc:a2:79:91:3d:99:45:8c:cc:08:5d:c9:b9:4f:94:19:d0:
        5e:9c:08:7c:8b:6c:11:c5:a7:7e:f3:5c:95:35:23:55:d2:cd:
        06:34:98:00:a3:64:54:5e:ad:b4:d1:4d:e0:cd:4d:cf:11:53:
        d4:12:88:9a:42:12:77:61:73:2d:ae:9a:ba:2a:73:f5:59:96:
        e5:0b:85:3c:01:3f:16:0e:df:fc:c6:e5:a9:68:21:e9:09:7a:
        7e:a9:fb:32:f0:69:d2:6d:30:e2:ed:34:6f:3d:fa:75:86:88:
        08:5f:fa:ee:72:b6:51:e3:77:00:cb:25:27:42:cd:86:46:f0:
        1a:08:6c:e4:a4:b0:97:2b:69:12:e6:3d:81:9b:d5:aa:31:c2:
        ac:93:43:04:3a:c1:e9:cf:53:f7:0a:ff:ed:6b:ef:ef:d0:43:
        43:54:de:10:de:c7:77:f3:e7:d1:14:66:c2:02:25:e2:5b:c6:
        c9:09:3c:a5:c0:b5:6e:e9:b0:6c:03:87:3f:b6:9c:3c:f8:9e:
        21:7c:dd:2d:99:09:62:ee:7f:44:d6:4c:dc:ff:33:97:77:86:
        03:1b:e0:16:c8:c6:83:79:9f:20:a4:a5:e0:f6:0d:d5:d2:c2:
        ab:80:2b:f0:f4:09:e8:9d:38:9e:d3:2e:5b:3c:72:7b:1f:56:
        d7:96:d7:e3:49:de:b1:99:e6:1f:44:0c:9a:11:ac:18:8b:64:
        a5:4f:48:eb:93:b5:73:1e:1e:ee:62:39:f0:65:2f:6f:ff:76:
        28:ac:d3:15:6a:39:04:b1:2b:1b:46:07:1a:b3:71:ea:e6:2c:
        55:3d:f6:a5:c9:a1:5e:aa:bc:a5:35:61:8f:ec:69:ca:78:76:
        cd:b5:47:04:66:d3:96:84:62:0f:c0:8e:17:df:24:6c:81:b1:
        85:9a:83:94:88:c1:37:e5:fa:bc:6d:f6:b3:b3:93:67:58:20:
        63:73:81:9e:51:f9:5d:dd:ba:c9:a9:7c:ee:cd:5f:8b:df:d0:
        2e:33:e4:aa:4e:35:17:6b:79:47:17:d0:89:68:53:37:0e:87:
        b7:9f:56:91:c9:a8:5d:12:5c:95:be:24:ff:8b:79:73:12:2e:
        25:66:01:33:ac:08:e4:3a
-----BEGIN CERTIFICATE-----
MIID7jCCAdagAwIBAgIBAjANBgkqhkiG9w0BAQUFADBaMQswCQYDVQQGEwJLUjET
MBEGA1UECBMKS3l1bmdHaS1EbzERMA8GA1UEBxMIU3V3b24tU2kxFjAUBgNVBAoT
DVNhbXN1bmcgRWxlYy4xCzAJBgNVBAMTAkNBMB4XDTA5MDMwOTAzMTMxNVoXDTEw
MDMwOTAzMTMxNVoweTELMAkGA1UEBhMCS1IxEzARBgNVBAgTCkt5dW5nR2ktRG8x
FjAUBgNVBAoTDVNhbXN1bmcgRWxlYy4xPTA7BgNVBAMTNENlcnRpZmljYXRlIGZv
ciBPQ1NQIENsaWVudCB0ZXN0IC0gSVAgYWRkcmVzcyBhcyBBSUEwgZ8wDQYJKoZI
hvcNAQEBBQADgY0AMIGJAoGBAOGhC0Aj9MIpKuaa+FWGA5R2mRUAYdWXAMqqfvbR
e3ASQJkAAZSMaX/A+tdyffxhVD2tAlOjxEkki0JZYQG1T1KD3wneGVqmznh7Hv0D
Kk4kN4nYEmHC9Ul0xfh1ewKyWqgto7MYP/AKGOn54JL6N7jyFZkjJgehyy7jxh/Y
iGXNAgMBAAGjJDAiMCAGCCsGAQUFBwEBBBQwEjAQBggrBgEFBQcwAYcEfwAAATAN
BgkqhkiG9w0BAQUFAAOCAgEAPFDTGSc2M+UdqeAwwb+LkGzv5kDnKl72HPThF/It
UEIw52gw2OqhvJJ3uAbL8ti5vCbB/2+MzzsioS8HxEGokUz9G8iFXCHPAxsaFcT0
PrwQiieC+iypG+kHcryieZE9mUWMzAhdyblPlBnQXpwIfItsEcWnfvNclTUjVdLN
BjSYAKNkVF6ttNFN4M1NzxFT1BKImkISd2FzLa6auipz9VmW5QuFPAE/Fg7f/Mbl
qWgh6Ql6fqn7MvBp0m0w4u00bz36dYaICF/67nK2UeN3AMslJ0LNhkbwGghs5KSw
lytpEuY9gZvVqjHCrJNDBDrB6c9T9wr/7Wvv79BDQ1TeEN7Hd/Pn0RRmwgIl4lvG
yQk8pcC1bumwbAOHP7acPPieIXzdLZkJYu5/RNZM3P8zl3eGAxvgFsjGg3mfIKSl
4PYN1dLCq4Ar8PQJ6J04ntMuWzxyex9W15bX40nesZnmH0QMmhGsGItkpU9I65O1
cx4e7mI58GUvb/92KKzTFWo5BLErG0YHGrNx6uYsVT32pcmhXqq8pTVhj+xpynh2
zbVHBGbTloRiD8COF98kbIGxhZqDlIjBN+X6vG32s7OTZ1ggY3OBnlH5Xd26yal8
7s1fi9/QLjPkqk41F2t5RxfQiWhTNw6Ht59WkcmoXRJclb4k/4t5cxIuJWYBM6wI
5Do=
-----END CERTIFICATE-----
