Certificate:
    Data:
        Version: 3 (0x2)
        Serial Number: 3 (0x3)
        Signature Algorithm: sha1WithRSAEncryption
        Issuer: C=KR, ST=KyungGi-Do, L=Suwon-Si, O=Samsung Elec., CN=CA
        Validity
            Not Before: Mar  9 06:09:55 2009 GMT
            Not After : Mar  9 06:09:55 2010 GMT
        Subject: C=KR, ST=KyungGi-Do, O=Samsung Elec., CN=First certificate to test OCSP
        Subject Public Key Info:
            Public Key Algorithm: rsaEncryption
            RSA Public Key: (1024 bit)
                Modulus (1024 bit):
                    00:c0:a9:51:63:19:e2:cc:f3:9d:19:d8:75:90:ab:
                    13:40:a3:3f:9d:dc:ef:48:42:0d:00:36:db:ea:68:
                    fd:b9:15:34:a9:af:0f:52:2b:57:2e:03:74:13:41:
                    b4:59:69:7e:f6:e1:54:42:8d:c3:f4:85:2b:ff:07:
                    97:a4:2f:5b:e4:13:be:72:ef:65:e7:59:be:ed:14:
                    71:82:cc:09:03:50:99:66:08:34:1a:41:45:e6:e3:
                    37:98:32:6a:15:d4:32:63:f7:26:6c:5a:ed:45:bd:
                    bb:aa:be:33:4b:9c:cb:b2:03:13:e3:2d:6f:61:57:
                    2a:e8:e8:44:0f:59:ea:e7:bf
                Exponent: 65537 (0x10001)
        X509v3 extensions:
            Authority Information Access: 
                OCSP - URI:http://127.0.0.1:80

    Signature Algorithm: sha1WithRSAEncryption
        a2:38:fe:fc:ab:b7:a1:d0:6d:52:b9:bd:7d:ab:24:94:01:bf:
        2c:26:a9:6d:90:33:ac:3a:84:f3:35:7d:2e:26:5b:27:30:c7:
        98:ba:a2:a8:a8:21:1c:32:a4:e9:3c:0a:91:9e:f9:e7:f1:6a:
        9a:c4:58:e6:24:1c:78:8e:2e:94:9c:c1:d8:87:bf:ba:0b:84:
        b8:96:5f:47:fc:b1:da:5d:d6:ae:a1:d7:37:36:4a:bf:41:5e:
        cc:6f:ef:4f:2f:a1:a4:25:ba:b9:a3:01:6d:3e:e9:19:e4:a7:
        05:51:f9:a4:8b:09:e3:3c:1f:0d:e2:98:9d:5a:66:c2:e2:80:
        ef:7d:4c:34:00:fe:08:10:4a:8f:6d:3d:46:95:cb:5a:19:95:
        65:98:b0:b7:9f:ec:14:65:56:04:c7:a5:e3:95:5e:5a:11:30:
        92:4f:40:e2:bc:b9:01:cb:ff:a9:34:b3:c0:7e:ab:3d:8d:f9:
        68:aa:46:33:2c:52:fd:ab:5a:b0:32:27:f0:43:8e:79:cd:aa:
        c9:c8:1b:1e:45:58:8c:36:b3:39:c4:25:a6:9c:81:01:5f:a3:
        19:d8:4d:e1:a3:a0:14:92:45:0c:ba:38:57:ce:aa:c6:98:b7:
        b0:53:74:fb:d6:52:ba:3b:0a:95:29:d6:99:57:d5:4f:19:48:
        e1:87:ac:ed:14:2c:34:0c:65:e7:d3:df:c0:92:5f:4b:2b:9c:
        3c:48:a0:bb:21:af:fe:37:b5:84:36:00:e5:97:00:ef:46:75:
        9f:e8:b4:24:91:76:ae:49:ed:a6:63:3d:22:2b:26:39:f6:77:
        76:f0:d1:93:bd:68:6e:66:50:50:4f:26:d1:4b:8f:d3:b1:b8:
        07:8b:5f:f8:ca:79:b6:40:1d:ab:09:14:e0:96:32:69:4a:bd:
        81:c2:5f:1e:5f:d8:84:9c:df:3a:3e:0c:14:10:46:b6:9d:b4:
        2d:71:f5:57:37:8e:b4:b5:9b:26:d5:69:89:7c:12:d8:0c:29:
        42:96:5b:e8:57:07:da:60:3e:c8:4e:52:83:b1:46:4b:91:ad:
        1e:89:97:b0:26:a6:b9:d5:b2:67:9b:e5:8c:02:56:aa:44:78:
        7b:15:a7:ad:ed:7b:d4:75:ac:5f:3e:fd:f3:52:89:7d:a5:25:
        5f:2d:b2:cb:99:25:8a:64:48:39:23:c0:82:34:4f:06:41:c3:
        07:d9:38:cc:99:59:c2:f0:88:65:91:7e:fb:59:3a:02:34:02:
        5a:90:4a:78:11:c0:fe:ab:09:04:c9:66:80:1e:fa:24:fc:c8:
        cd:d8:bf:b4:fe:23:5d:22:0c:92:09:90:2d:76:a6:99:c1:7e:
        d4:68:b4:36:ae:11:c8:b2
-----BEGIN CERTIFICATE-----
MIID5zCCAc+gAwIBAgIBAzANBgkqhkiG9w0BAQUFADBaMQswCQYDVQQGEwJLUjET
MBEGA1UECBMKS3l1bmdHaS1EbzERMA8GA1UEBxMIU3V3b24tU2kxFjAUBgNVBAoT
DVNhbXN1bmcgRWxlYy4xCzAJBgNVBAMTAkNBMB4XDTA5MDMwOTA2MDk1NVoXDTEw
MDMwOTA2MDk1NVowYzELMAkGA1UEBhMCS1IxEzARBgNVBAgTCkt5dW5nR2ktRG8x
FjAUBgNVBAoTDVNhbXN1bmcgRWxlYy4xJzAlBgNVBAMTHkZpcnN0IGNlcnRpZmlj
YXRlIHRvIHRlc3QgT0NTUDCBnzANBgkqhkiG9w0BAQEFAAOBjQAwgYkCgYEAwKlR
YxnizPOdGdh1kKsTQKM/ndzvSEINADbb6mj9uRU0qa8PUitXLgN0E0G0WWl+9uFU
Qo3D9IUr/weXpC9b5BO+cu9l51m+7RRxgswJA1CZZgg0GkFF5uM3mDJqFdQyY/cm
bFrtRb27qr4zS5zLsgMT4y1vYVcq6OhED1nq578CAwEAAaMzMDEwLwYIKwYBBQUH
AQEEIzAhMB8GCCsGAQUFBzABhhNodHRwOi8vMTI3LjAuMC4xOjgwMA0GCSqGSIb3
DQEBBQUAA4ICAQCiOP78q7eh0G1Sub19qySUAb8sJqltkDOsOoTzNX0uJlsnMMeY
uqKoqCEcMqTpPAqRnvnn8WqaxFjmJBx4ji6UnMHYh7+6C4S4ll9H/LHaXdauodc3
Nkq/QV7Mb+9PL6GkJbq5owFtPukZ5KcFUfmkiwnjPB8N4pidWmbC4oDvfUw0AP4I
EEqPbT1GlctaGZVlmLC3n+wUZVYEx6XjlV5aETCST0DivLkBy/+pNLPAfqs9jflo
qkYzLFL9q1qwMifwQ455zarJyBseRViMNrM5xCWmnIEBX6MZ2E3ho6AUkkUMujhX
zqrGmLewU3T71lK6OwqVKdaZV9VPGUjhh6ztFCw0DGXn09/Akl9LK5w8SKC7Ia/+
N7WENgDllwDvRnWf6LQkkXauSe2mYz0iKyY59nd28NGTvWhuZlBQTybRS4/TsbgH
i1/4ynm2QB2rCRTgljJpSr2Bwl8eX9iEnN86PgwUEEa2nbQtcfVXN460tZsm1WmJ
fBLYDClCllvoVwfaYD7ITlKDsUZLka0eiZewJqa51bJnm+WMAlaqRHh7Faet7XvU
daxfPv3zUol9pSVfLbLLmSWKZEg5I8CCNE8GQcMH2TjMmVnC8IhlkX77WToCNAJa
kEp4EcD+qwkEyWaAHvok/MjN2L+0/iNdIgySCZAtdqaZwX7UaLQ2rhHIsg==
-----END CERTIFICATE-----
