Certificate:
    Data:
        Version: 3 (0x2)
        Serial Number: 4 (0x4)
        Signature Algorithm: sha1WithRSAEncryption
        Issuer: C=KR, ST=KyungGi-Do, L=Suwon-Si, O=Samsung Elec., CN=CA
        Validity
            Not Before: Mar  9 06:11:08 2009 GMT
            Not After : Mar  9 06:11:08 2010 GMT
        Subject: C=KR, ST=KyungGi-Do, O=Samsung Elec., CN=First certificate to test OCSP
        Subject Public Key Info:
            Public Key Algorithm: rsaEncryption
            RSA Public Key: (1024 bit)
                Modulus (1024 bit):
                    00:c0:a9:51:63:19:e2:cc:f3:9d:19:d8:75:90:ab:
                    13:40:a3:3f:9d:dc:ef:48:42:0d:00:36:db:ea:68:
                    fd:b9:15:34:a9:af:0f:52:2b:57:2e:03:74:13:41:
                    b4:59:69:7e:f6:e1:54:42:8d:c3:f4:85:2b:ff:07:
                    97:a4:2f:5b:e4:13:be:72:ef:65:e7:59:be:ed:14:
                    71:82:cc:09:03:50:99:66:08:34:1a:41:45:e6:e3:
                    37:98:32:6a:15:d4:32:63:f7:26:6c:5a:ed:45:bd:
                    bb:aa:be:33:4b:9c:cb:b2:03:13:e3:2d:6f:61:57:
                    2a:e8:e8:44:0f:59:ea:e7:bf
                Exponent: 65537 (0x10001)
        X509v3 extensions:
            Authority Information Access: 
                OCSP - URI:http://127.0.0.1:80

    Signature Algorithm: sha1WithRSAEncryption
        6c:b3:f9:8e:f2:e6:c1:5e:a5:61:96:b3:77:9a:e7:bb:ba:6c:
        ff:0c:cc:47:b7:4f:f4:98:08:57:0f:40:cb:4a:3b:dc:52:64:
        04:33:e3:c3:94:65:1d:a7:2b:d8:59:3b:74:37:cc:0e:06:fa:
        db:8c:b5:45:08:b1:f6:0b:3f:c8:f6:d6:36:4a:9b:df:41:58:
        7c:9d:85:e4:d7:a3:87:64:68:1c:0d:33:bc:f3:b0:c7:01:72:
        ee:e8:e0:9b:e4:bf:b1:71:ec:eb:ca:6c:c5:4f:b8:66:06:42:
        fd:24:a4:d3:cb:35:d1:e8:0a:88:dd:ff:4e:43:59:87:96:9a:
        13:08:8b:e4:c6:3f:3d:b8:5f:5f:91:a1:2f:39:bf:a7:33:4c:
        7d:3d:38:3d:b9:f7:15:f6:eb:f6:c3:5a:ed:1d:54:d2:7b:98:
        aa:32:06:7e:b1:9c:fe:29:02:be:7e:f2:d6:75:0a:a8:21:e6:
        38:6e:8d:29:60:65:64:5c:7a:1d:75:fd:48:ca:25:76:79:95:
        19:0b:98:d5:76:14:c0:27:92:aa:f7:c6:1f:bc:82:65:d0:7c:
        ea:bb:a0:1c:e6:7b:0f:5d:87:8f:31:75:5a:79:49:cd:eb:1d:
        ee:02:e1:4c:ae:d0:89:78:d1:43:fb:ca:08:11:26:4c:46:43:
        a4:43:3f:55:a0:5c:d3:48:ee:e7:6c:c0:d1:1e:1c:7d:af:45:
        0c:6f:31:33:df:28:dd:94:71:09:e5:1c:12:86:58:2a:78:0c:
        e3:05:5e:92:ae:fb:0b:2e:16:bb:9a:d0:b9:d8:77:8b:17:fb:
        fe:9a:0c:99:bb:1e:9a:ac:b4:dc:08:fa:6b:f8:48:fc:71:c7:
        06:16:20:5c:38:19:66:f7:4d:86:e8:6e:f9:f9:4c:94:d7:df:
        57:d4:2a:08:37:a7:71:17:51:37:3e:b3:8e:0a:5a:4c:1f:6c:
        24:5a:df:4b:39:ec:a1:12:8a:c1:95:43:e8:6f:5a:63:b2:20:
        1b:b0:c4:67:17:a9:be:c3:1d:04:99:26:37:f9:df:04:3d:e9:
        26:54:d2:26:20:30:df:f8:1d:0e:1a:21:12:a5:b4:cf:ae:5f:
        4b:87:6d:3c:a3:9f:5f:e9:ad:34:ed:38:59:8c:be:2b:c7:1a:
        51:a3:b9:8a:1c:ae:47:b0:93:78:5a:21:fc:c1:91:6d:87:3c:
        74:2a:a7:6f:fc:73:fe:6c:c8:17:19:2c:1f:2e:17:b9:62:38:
        bd:0e:81:fb:6e:39:94:25:55:21:d3:6a:6a:c4:3e:00:61:99:
        00:33:d5:6b:36:2e:f6:d4:bf:bc:d0:a5:c6:51:95:aa:d4:67:
        aa:b7:a2:92:10:7a:96:51
-----BEGIN CERTIFICATE-----
MIID5zCCAc+gAwIBAgIBBDANBgkqhkiG9w0BAQUFADBaMQswCQYDVQQGEwJLUjET
MBEGA1UECBMKS3l1bmdHaS1EbzERMA8GA1UEBxMIU3V3b24tU2kxFjAUBgNVBAoT
DVNhbXN1bmcgRWxlYy4xCzAJBgNVBAMTAkNBMB4XDTA5MDMwOTA2MTEwOFoXDTEw
MDMwOTA2MTEwOFowYzELMAkGA1UEBhMCS1IxEzARBgNVBAgTCkt5dW5nR2ktRG8x
FjAUBgNVBAoTDVNhbXN1bmcgRWxlYy4xJzAlBgNVBAMTHkZpcnN0IGNlcnRpZmlj
YXRlIHRvIHRlc3QgT0NTUDCBnzANBgkqhkiG9w0BAQEFAAOBjQAwgYkCgYEAwKlR
YxnizPOdGdh1kKsTQKM/ndzvSEINADbb6mj9uRU0qa8PUitXLgN0E0G0WWl+9uFU
Qo3D9IUr/weXpC9b5BO+cu9l51m+7RRxgswJA1CZZgg0GkFF5uM3mDJqFdQyY/cm
bFrtRb27qr4zS5zLsgMT4y1vYVcq6OhED1nq578CAwEAAaMzMDEwLwYIKwYBBQUH
AQEEIzAhMB8GCCsGAQUFBzABhhNodHRwOi8vMTI3LjAuMC4xOjgwMA0GCSqGSIb3
DQEBBQUAA4ICAQBss/mO8ubBXqVhlrN3mue7umz/DMxHt0/0mAhXD0DLSjvcUmQE
M+PDlGUdpyvYWTt0N8wOBvrbjLVFCLH2Cz/I9tY2SpvfQVh8nYXk16OHZGgcDTO8
87DHAXLu6OCb5L+xcezrymzFT7hmBkL9JKTTyzXR6AqI3f9OQ1mHlpoTCIvkxj89
uF9fkaEvOb+nM0x9PTg9ufcV9uv2w1rtHVTSe5iqMgZ+sZz+KQK+fvLWdQqoIeY4
bo0pYGVkXHoddf1IyiV2eZUZC5jVdhTAJ5Kq98YfvIJl0Hzqu6Ac5nsPXYePMXVa
eUnN6x3uAuFMrtCJeNFD+8oIESZMRkOkQz9VoFzTSO7nbMDRHhx9r0UMbzEz3yjd
lHEJ5RwShlgqeAzjBV6SrvsLLha7mtC52HeLF/v+mgyZux6arLTcCPpr+Ej8cccG
FiBcOBlm902G6G75+UyU199X1CoIN6dxF1E3PrOOClpMH2wkWt9LOeyhEorBlUPo
b1pjsiAbsMRnF6m+wx0EmSY3+d8EPekmVNImIDDf+B0OGiESpbTPrl9Lh208o59f
6a007ThZjL4rxxpRo7mKHK5HsJN4WiH8wZFthzx0Kqdv/HP+bMgXGSwfLhe5Yji9
DoH7bjmUJVUh02pqxD4AYZkAM9VrNi721L+80KXGUZWq1Geqt6KSEHqWUQ==
-----END CERTIFICATE-----
