Certificate:
    Data:
        Version: 3 (0x2)
        Serial Number: 5 (0x5)
        Signature Algorithm: sha1WithRSAEncryption
        Issuer: C=KR, ST=KyungGi-Do, L=Suwon-Si, O=Samsung Elec., CN=CA
        Validity
            Not Before: Mar  9 06:12:23 2009 GMT
            Not After : Mar  9 06:12:23 2010 GMT
        Subject: C=KR, ST=KyungGi-Do, O=Samsung Elec., CN=First certificate to test OCSP
        Subject Public Key Info:
            Public Key Algorithm: rsaEncryption
            RSA Public Key: (1024 bit)
                Modulus (1024 bit):
                    00:c0:a9:51:63:19:e2:cc:f3:9d:19:d8:75:90:ab:
                    13:40:a3:3f:9d:dc:ef:48:42:0d:00:36:db:ea:68:
                    fd:b9:15:34:a9:af:0f:52:2b:57:2e:03:74:13:41:
                    b4:59:69:7e:f6:e1:54:42:8d:c3:f4:85:2b:ff:07:
                    97:a4:2f:5b:e4:13:be:72:ef:65:e7:59:be:ed:14:
                    71:82:cc:09:03:50:99:66:08:34:1a:41:45:e6:e3:
                    37:98:32:6a:15:d4:32:63:f7:26:6c:5a:ed:45:bd:
                    bb:aa:be:33:4b:9c:cb:b2:03:13:e3:2d:6f:61:57:
                    2a:e8:e8:44:0f:59:ea:e7:bf
                Exponent: 65537 (0x10001)
        X509v3 extensions:
            Authority Information Access: 
                OCSP - URI:http://127.0.0.1:80

    Signature Algorithm: sha1WithRSAEncryption
        4d:c8:99:4f:87:bc:aa:fa:03:99:57:b0:9b:56:a4:6a:7f:fc:
        34:5d:ef:c5:9e:f1:d2:65:95:8c:f0:d6:47:9e:50:3b:1b:1f:
        54:a7:75:6c:67:19:11:c4:c0:23:2f:a2:80:2c:08:84:10:63:
        17:f5:4f:e7:24:53:cf:f6:52:64:b4:e6:5a:44:73:c9:f2:c0:
        91:5f:23:2a:a4:4e:14:57:19:9e:82:82:d5:e1:cd:2e:1a:8d:
        6c:45:e9:46:41:ec:25:e1:84:c9:f7:97:61:0c:2d:28:86:03:
        1f:bf:8f:61:f2:b4:37:eb:e9:e7:9e:1a:55:1c:95:2d:50:f8:
        1e:01:b8:3a:22:cb:18:00:43:ec:6c:6c:51:0c:ee:28:a1:85:
        1c:b5:15:69:8b:0d:45:26:d9:48:19:d3:42:6a:e9:29:81:60:
        db:49:df:f0:1a:4b:82:68:f0:40:af:8b:22:1f:60:08:8a:40:
        e3:c1:cc:89:8f:28:12:ea:70:eb:a7:98:af:c8:2e:36:0d:5f:
        b9:eb:79:dc:64:f4:a6:70:91:00:f6:0e:81:bc:f6:35:d2:0a:
        ed:52:ff:2e:69:68:72:d1:19:32:39:47:80:82:c3:3d:36:98:
        2f:9a:fe:6d:dc:7c:45:7a:fe:01:d6:36:de:53:92:4e:2c:0c:
        b1:a2:39:d1:5f:50:c4:6a:a1:2b:15:17:df:20:8f:dd:79:cf:
        f1:ce:76:df:fa:b1:f6:6b:67:e7:c7:3a:7d:2e:53:fe:f7:c2:
        1f:b7:fa:71:09:b7:9f:83:91:0a:ce:eb:00:55:47:35:0b:ef:
        fc:ac:b2:03:e0:78:89:2d:56:a8:52:a1:93:6c:44:25:58:bd:
        4a:ba:f9:85:23:fc:c0:db:4c:8b:95:54:be:ed:18:90:46:27:
        f1:3f:37:26:00:08:9f:fc:ce:5b:7e:64:26:46:51:42:c1:de:
        c4:2f:a8:73:74:0b:e6:48:aa:f3:01:df:63:36:d9:4b:6a:08:
        02:ac:51:44:e9:ce:99:02:62:f5:87:d9:b2:a6:0b:77:bf:93:
        bd:ea:47:4c:6c:83:b5:0f:ca:ba:9b:55:8c:da:4f:87:63:d6:
        32:87:b0:8a:74:3e:02:f5:47:96:dd:85:26:2e:43:63:96:45:
        48:ca:45:b9:7c:4e:ae:93:69:0c:72:b2:c1:fe:81:ae:ab:be:
        e9:14:eb:ea:d6:e8:a4:a3:4f:dc:90:d5:10:b7:53:b7:85:81:
        aa:46:bc:c6:f6:97:1f:a7:55:0b:e2:45:e8:f9:ef:f4:62:88:
        bd:46:85:39:55:3c:32:92:1c:41:0c:cc:92:3b:17:9a:cc:ef:
        2f:3b:c5:e0:39:cc:23:47
-----BEGIN CERTIFICATE-----
MIID5zCCAc+gAwIBAgIBBTANBgkqhkiG9w0BAQUFADBaMQswCQYDVQQGEwJLUjET
MBEGA1UECBMKS3l1bmdHaS1EbzERMA8GA1UEBxMIU3V3b24tU2kxFjAUBgNVBAoT
DVNhbXN1bmcgRWxlYy4xCzAJBgNVBAMTAkNBMB4XDTA5MDMwOTA2MTIyM1oXDTEw
MDMwOTA2MTIyM1owYzELMAkGA1UEBhMCS1IxEzARBgNVBAgTCkt5dW5nR2ktRG8x
FjAUBgNVBAoTDVNhbXN1bmcgRWxlYy4xJzAlBgNVBAMTHkZpcnN0IGNlcnRpZmlj
YXRlIHRvIHRlc3QgT0NTUDCBnzANBgkqhkiG9w0BAQEFAAOBjQAwgYkCgYEAwKlR
YxnizPOdGdh1kKsTQKM/ndzvSEINADbb6mj9uRU0qa8PUitXLgN0E0G0WWl+9uFU
Qo3D9IUr/weXpC9b5BO+cu9l51m+7RRxgswJA1CZZgg0GkFF5uM3mDJqFdQyY/cm
bFrtRb27qr4zS5zLsgMT4y1vYVcq6OhED1nq578CAwEAAaMzMDEwLwYIKwYBBQUH
AQEEIzAhMB8GCCsGAQUFBzABhhNodHRwOi8vMTI3LjAuMC4xOjgwMA0GCSqGSIb3
DQEBBQUAA4ICAQBNyJlPh7yq+gOZV7CbVqRqf/w0Xe/FnvHSZZWM8NZHnlA7Gx9U
p3VsZxkRxMAjL6KALAiEEGMX9U/nJFPP9lJktOZaRHPJ8sCRXyMqpE4UVxmegoLV
4c0uGo1sRelGQewl4YTJ95dhDC0ohgMfv49h8rQ36+nnnhpVHJUtUPgeAbg6IssY
AEPsbGxRDO4ooYUctRVpiw1FJtlIGdNCaukpgWDbSd/wGkuCaPBAr4siH2AIikDj
wcyJjygS6nDrp5ivyC42DV+563ncZPSmcJEA9g6BvPY10grtUv8uaWhy0RkyOUeA
gsM9Npgvmv5t3HxFev4B1jbeU5JOLAyxojnRX1DEaqErFRffII/dec/xznbf+rH2
a2fnxzp9LlP+98Ift/pxCbefg5EKzusAVUc1C+/8rLID4HiJLVaoUqGTbEQlWL1K
uvmFI/zA20yLlVS+7RiQRifxPzcmAAif/M5bfmQmRlFCwd7EL6hzdAvmSKrzAd9j
NtlLaggCrFFE6c6ZAmL1h9mypgt3v5O96kdMbIO1D8q6m1WM2k+HY9Yyh7CKdD4C
9UeW3YUmLkNjlkVIykW5fE6uk2kMcrLB/oGuq77pFOvq1uiko0/ckNUQt1O3hYGq
RrzG9pcfp1UL4kXo+e/0Yoi9RoU5VTwykhxBDMySOxeazO8vO8XgOcwjRw==
-----END CERTIFICATE-----
