Certificate:
    Data:
        Version: 3 (0x2)
        Serial Number: 6 (0x6)
        Signature Algorithm: sha1WithRSAEncryption
        Issuer: C=KR, ST=KyungGi-Do, L=Suwon-Si, O=Samsung Elec., CN=CA
        Validity
            Not Before: Mar 10 00:10:31 2009 GMT
            Not After : Mar 10 00:10:31 2010 GMT
        Subject: C=KR, ST=KyungGi-Do, O=Samsung Elec., CN=OCSP Responder
        Subject Public Key Info:
            Public Key Algorithm: rsaEncryption
            RSA Public Key: (1024 bit)
                Modulus (1024 bit):
                    00:d4:41:90:ba:e8:97:0c:89:05:f0:95:75:44:ff:
                    f3:c9:b1:68:90:0a:83:a2:30:6d:f4:8d:2d:e1:ec:
                    c7:bd:ba:24:39:bf:ae:29:fa:65:2b:c6:98:ee:13:
                    74:7c:5d:68:36:5b:b4:0c:ae:6b:99:40:b8:39:a2:
                    df:fa:97:e3:62:37:ff:3c:ae:39:6a:1c:77:39:81:
                    2e:9d:c9:a4:30:e0:4c:e6:18:e9:57:04:a1:09:0b:
                    ab:ac:00:9c:ca:65:96:59:1f:e9:21:86:9b:d8:ef:
                    86:db:99:70:1c:39:31:9f:48:f9:02:0d:4d:53:aa:
                    ac:ad:f1:58:ca:84:98:44:95
                Exponent: 65537 (0x10001)
        X509v3 extensions:
            X509v3 Extended Key Usage: 
                OCSP Signing
    Signature Algorithm: sha1WithRSAEncryption
        a5:f6:ed:d3:38:76:cd:45:47:1f:0d:cf:67:ee:7d:e7:c5:dc:
        fe:a6:8d:88:3e:f8:29:dd:54:1c:a4:b7:3b:7b:a3:59:5d:64:
        16:a9:2a:66:3b:3e:08:2d:32:88:0e:cd:8c:05:84:39:a0:19:
        1f:91:24:ee:e9:a8:a7:b6:21:40:ca:12:d7:e5:98:4a:0f:d7:
        31:e4:86:b0:1b:56:c1:38:d7:26:c2:fb:3d:2b:71:68:4c:a4:
        80:16:2e:13:1a:d6:5e:92:b9:cf:ff:19:ea:65:49:b1:db:17:
        b8:d3:46:99:2c:12:20:51:6c:7d:a3:41:b3:88:f6:88:e2:07:
        6e:49:6f:32:8d:dc:a0:e3:01:e6:5e:15:07:06:55:48:ae:f5:
        77:8c:92:92:31:fa:06:29:5e:fc:16:1c:69:25:62:7e:6c:e4:
        9b:60:c1:c9:28:6b:62:d3:72:bb:e6:a1:41:89:5d:56:5b:3f:
        38:98:c0:c0:08:41:84:01:c1:cf:23:44:92:98:f7:47:40:a0:
        8c:a7:29:a3:2d:15:f8:cd:7b:40:dc:84:8f:46:0f:d4:fe:78:
        96:3a:53:01:31:64:47:3b:d8:50:92:7f:87:6c:94:ce:9e:07:
        96:53:0a:c5:a8:2b:07:b4:8c:55:0d:e3:96:1b:fd:62:e8:19:
        c7:bc:ab:79:65:aa:83:5d:a3:94:db:84:23:e2:4c:ef:74:8f:
        36:15:71:fd:a1:78:f0:c4:23:2e:ec:8b:de:df:23:58:6e:f6:
        c0:4a:ff:d0:b4:1b:f5:dd:e4:ab:bf:65:13:ee:ac:e4:86:31:
        35:60:8d:04:bd:a3:90:35:11:b6:55:86:65:22:ec:ae:ef:65:
        06:27:91:b7:a3:a0:84:83:c3:ae:fb:39:0b:74:c2:aa:da:2e:
        52:27:5a:07:10:ba:10:a8:2c:54:c1:87:4d:cb:d5:fa:6f:6a:
        fe:1b:61:74:79:96:c4:b1:26:61:2d:26:6a:59:07:cd:20:11:
        15:13:78:9b:77:5b:65:43:17:e0:0a:6e:6e:e5:72:37:58:3a:
        96:e4:28:08:56:c5:78:2a:e8:ac:cb:44:66:25:a4:19:8a:bb:
        c8:10:8f:25:0d:93:a2:e8:d0:58:85:69:b0:fd:fa:38:83:90:
        29:84:57:1c:39:6c:52:87:f5:4b:de:cf:c6:b8:4a:e2:a2:c8:
        c9:4e:7a:a3:51:13:d7:62:3a:31:7c:b9:ad:df:1e:a2:2f:c6:
        5f:3f:f9:e3:e7:e2:8d:6c:1d:49:93:b7:ea:84:80:01:41:6e:
        8d:a4:00:4e:9c:8b:5a:6f:84:6e:04:a2:7c:9c:e7:6b:30:50:
        a5:1d:2d:2e:00:24:6c:6b
-----BEGIN CERTIFICATE-----
MIIDuzCCAaOgAwIBAgIBBjANBgkqhkiG9w0BAQUFADBaMQswCQYDVQQGEwJLUjET
MBEGA1UECBMKS3l1bmdHaS1EbzERMA8GA1UEBxMIU3V3b24tU2kxFjAUBgNVBAoT
DVNhbXN1bmcgRWxlYy4xCzAJBgNVBAMTAkNBMB4XDTA5MDMxMDAwMTAzMVoXDTEw
MDMxMDAwMTAzMVowUzELMAkGA1UEBhMCS1IxEzARBgNVBAgTCkt5dW5nR2ktRG8x
FjAUBgNVBAoTDVNhbXN1bmcgRWxlYy4xFzAVBgNVBAMTDk9DU1AgUmVzcG9uZGVy
MIGfMA0GCSqGSIb3DQEBAQUAA4GNADCBiQKBgQDUQZC66JcMiQXwlXVE//PJsWiQ
CoOiMG30jS3h7Me9uiQ5v64p+mUrxpjuE3R8XWg2W7QMrmuZQLg5ot/6l+NiN/88
rjlqHHc5gS6dyaQw4EzmGOlXBKEJC6usAJzKZZZZH+khhpvY74bbmXAcOTGfSPkC
DU1Tqqyt8VjKhJhElQIDAQABoxcwFTATBgNVHSUEDDAKBggrBgEFBQcDCTANBgkq
hkiG9w0BAQUFAAOCAgEApfbt0zh2zUVHHw3PZ+5958Xc/qaNiD74Kd1UHKS3O3uj
WV1kFqkqZjs+CC0yiA7NjAWEOaAZH5Ek7umop7YhQMoS1+WYSg/XMeSGsBtWwTjX
JsL7PStxaEykgBYuExrWXpK5z/8Z6mVJsdsXuNNGmSwSIFFsfaNBs4j2iOIHbklv
Mo3coOMB5l4VBwZVSK71d4ySkjH6Bile/BYcaSVifmzkm2DByShrYtNyu+ahQYld
Vls/OJjAwAhBhAHBzyNEkpj3R0CgjKcpoy0V+M17QNyEj0YP1P54ljpTATFkRzvY
UJJ/h2yUzp4HllMKxagrB7SMVQ3jlhv9YugZx7yreWWqg12jlNuEI+JM73SPNhVx
/aF48MQjLuyL3t8jWG72wEr/0LQb9d3kq79lE+6s5IYxNWCNBL2jkDURtlWGZSLs
ru9lBieRt6OghIPDrvs5C3TCqtouUidaBxC6EKgsVMGHTcvV+m9q/hthdHmWxLEm
YS0malkHzSARFRN4m3dbZUMX4ApubuVyN1g6luQoCFbFeCrorMtEZiWkGYq7yBCP
JQ2ToujQWIVpsP36OIOQKYRXHDlsUof1S97PxrhK4qLIyU56o1ET12I6MXy5rd8e
oi/GXz/54+fijWwdSZO36oSAAUFujaQATpyLWm+EbgSifJznazBQpR0tLgAkbGs=
-----END CERTIFICATE-----
