Certificate:
    Data:
        Version: 3 (0x2)
        Serial Number: 8 (0x8)
        Signature Algorithm: sha1WithRSAEncryption
        Issuer: C=KR, ST=KyungGi-Do, L=Suwon-Si, O=Samsung Elec., CN=CA
        Validity
            Not Before: Mar 10 08:04:09 2009 GMT
            Not After : Mar 10 08:04:09 2010 GMT
        Subject: C=KR, ST=KyungGi-Do, O=Samsung Elec., CN=First certificate to test OCSP
        Subject Public Key Info:
            Public Key Algorithm: rsaEncryption
            RSA Public Key: (1024 bit)
                Modulus (1024 bit):
                    00:c0:a9:51:63:19:e2:cc:f3:9d:19:d8:75:90:ab:
                    13:40:a3:3f:9d:dc:ef:48:42:0d:00:36:db:ea:68:
                    fd:b9:15:34:a9:af:0f:52:2b:57:2e:03:74:13:41:
                    b4:59:69:7e:f6:e1:54:42:8d:c3:f4:85:2b:ff:07:
                    97:a4:2f:5b:e4:13:be:72:ef:65:e7:59:be:ed:14:
                    71:82:cc:09:03:50:99:66:08:34:1a:41:45:e6:e3:
                    37:98:32:6a:15:d4:32:63:f7:26:6c:5a:ed:45:bd:
                    bb:aa:be:33:4b:9c:cb:b2:03:13:e3:2d:6f:61:57:
                    2a:e8:e8:44:0f:59:ea:e7:bf
                Exponent: 65537 (0x10001)
        X509v3 extensions:
            Authority Information Access: 
                OCSP - URI:http://127.0.0.1:80/0001

    Signature Algorithm: sha1WithRSAEncryption
        71:65:df:93:41:79:18:74:88:43:3b:dd:0f:b4:ac:96:16:f3:
        0c:39:28:03:3e:3a:ee:0f:ce:d8:8c:14:3d:ae:e7:f8:a5:ff:
        2f:f3:a9:17:0e:a3:6f:d0:a0:97:bb:b9:96:ba:ec:fc:3f:ef:
        86:5c:d0:1c:66:2a:ac:7a:ca:a4:c2:4b:a3:6d:5f:3e:eb:e3:
        df:c7:74:d8:b8:04:ab:de:91:96:26:1b:83:78:6e:4c:37:ad:
        b1:90:e8:35:b2:da:fb:ee:8b:75:02:21:a0:11:b7:52:4f:90:
        86:6c:5a:be:74:b8:cf:3b:0c:ff:08:27:f5:d9:13:62:fc:8e:
        61:35:bb:48:fa:28:d0:5d:1b:73:4b:c3:29:d0:e0:b4:9b:9f:
        59:9e:6a:5d:7a:55:4f:91:94:28:0c:76:e5:9e:83:db:f9:1e:
        44:98:5d:6c:a6:2e:a0:b2:bf:f3:f0:d8:45:46:77:26:32:32:
        2f:a2:8a:80:37:81:78:74:5f:91:e8:25:a7:bd:d2:34:cb:57:
        80:d3:cf:1d:b1:2d:fb:d1:fd:0b:84:a5:86:f1:c9:25:06:3a:
        65:06:8b:e8:b0:6b:57:35:73:30:18:a9:fe:c6:6f:8c:63:45:
        62:c3:8b:f6:d8:70:38:8a:e7:c2:63:0e:4a:4b:a7:d8:45:42:
        59:96:af:05:4c:ac:fe:d5:cc:45:7e:b6:30:39:52:f2:e8:26:
        0d:22:be:b6:bf:e9:d4:ff:f7:5a:55:b3:5c:86:95:72:01:06:
        d8:58:26:21:9b:b9:02:f0:03:84:16:d3:f0:20:cb:7d:28:c8:
        f5:6d:d8:8e:57:29:f8:ba:c2:f4:e5:ea:d2:f1:6e:8b:44:f1:
        a0:1a:5b:e8:e1:e2:a1:6c:18:a5:06:df:d0:94:6c:20:34:c1:
        0c:5e:e5:fc:d8:74:e6:a1:6a:a5:00:ca:30:a3:6b:71:8b:3c:
        27:8b:c0:b5:2a:e0:78:10:8a:8b:ae:0b:ff:8a:f2:ef:e1:1e:
        dd:2a:d5:2f:8f:98:b1:4d:db:66:6b:b1:bd:85:d6:36:bd:19:
        29:bd:40:1d:1a:b5:7f:77:a5:08:3f:98:07:38:82:e5:e3:53:
        b7:cc:54:66:e0:f2:b7:4c:0c:da:3c:5b:5f:d9:9b:f6:86:e2:
        e6:c8:d4:9a:81:e2:5b:e3:a7:0d:d9:4c:ac:98:b2:b7:de:56:
        2c:82:3a:a2:64:55:36:2b:d5:95:1c:ff:bd:25:1c:9e:a1:55:
        d6:00:c2:ae:d3:54:63:33:ac:30:dd:52:90:78:53:9f:7c:b4:
        72:4c:1a:3e:b1:90:5e:ce:af:a0:d7:5f:3e:dd:c5:28:42:03:
        ea:a7:5e:5b:ff:fa:b0:89
-----BEGIN CERTIFICATE-----
MIID7DCCAdSgAwIBAgIBCDANBgkqhkiG9w0BAQUFADBaMQswCQYDVQQGEwJLUjET
MBEGA1UECBMKS3l1bmdHaS1EbzERMA8GA1UEBxMIU3V3b24tU2kxFjAUBgNVBAoT
DVNhbXN1bmcgRWxlYy4xCzAJBgNVBAMTAkNBMB4XDTA5MDMxMDA4MDQwOVoXDTEw
MDMxMDA4MDQwOVowYzELMAkGA1UEBhMCS1IxEzARBgNVBAgTCkt5dW5nR2ktRG8x
FjAUBgNVBAoTDVNhbXN1bmcgRWxlYy4xJzAlBgNVBAMTHkZpcnN0IGNlcnRpZmlj
YXRlIHRvIHRlc3QgT0NTUDCBnzANBgkqhkiG9w0BAQEFAAOBjQAwgYkCgYEAwKlR
YxnizPOdGdh1kKsTQKM/ndzvSEINADbb6mj9uRU0qa8PUitXLgN0E0G0WWl+9uFU
Qo3D9IUr/weXpC9b5BO+cu9l51m+7RRxgswJA1CZZgg0GkFF5uM3mDJqFdQyY/cm
bFrtRb27qr4zS5zLsgMT4y1vYVcq6OhED1nq578CAwEAAaM4MDYwNAYIKwYBBQUH
AQEEKDAmMCQGCCsGAQUFBzABhhhodHRwOi8vMTI3LjAuMC4xOjgwLzAwMDEwDQYJ
KoZIhvcNAQEFBQADggIBAHFl35NBeRh0iEM73Q+0rJYW8ww5KAM+Ou4PztiMFD2u
5/il/y/zqRcOo2/QoJe7uZa67Pw/74Zc0BxmKqx6yqTCS6NtXz7r49/HdNi4BKve
kZYmG4N4bkw3rbGQ6DWy2vvui3UCIaARt1JPkIZsWr50uM87DP8IJ/XZE2L8jmE1
u0j6KNBdG3NLwynQ4LSbn1meal16VU+RlCgMduWeg9v5HkSYXWymLqCyv/Pw2EVG
dyYyMi+iioA3gXh0X5HoJae90jTLV4DTzx2xLfvR/QuEpYbxySUGOmUGi+iwa1c1
czAYqf7Gb4xjRWLDi/bYcDiK58JjDkpLp9hFQlmWrwVMrP7VzEV+tjA5UvLoJg0i
vra/6dT/91pVs1yGlXIBBthYJiGbuQLwA4QW0/Agy30oyPVt2I5XKfi6wvTl6tLx
botE8aAaW+jh4qFsGKUG39CUbCA0wQxe5fzYdOahaqUAyjCja3GLPCeLwLUq4HgQ
iouuC/+K8u/hHt0q1S+PmLFN22Zrsb2F1ja9GSm9QB0atX93pQg/mAc4guXjU7fM
VGbg8rdMDNo8W1/Zm/aG4ubI1JqB4lvjpw3ZTKyYsrfeViyCOqJkVTYr1ZUc/70l
HJ6hVdYAwq7TVGMzrDDdUpB4U598tHJMGj6xkF7Or6DXXz7dxShCA+qnXlv/+rCJ
-----END CERTIFICATE-----
