Certificate:
    Data:
        Version: 3 (0x2)
        Serial Number: 9 (0x9)
        Signature Algorithm: sha1WithRSAEncryption
        Issuer: C=KR, ST=KyungGi-Do, L=Suwon-Si, O=Samsung Elec., CN=CA
        Validity
            Not Before: Mar 11 10:49:52 2009 GMT
            Not After : Mar 11 10:49:52 2010 GMT
        Subject: C=KR, ST=KyungGi-Do, O=Samsung Elec., CN=OCSP Responder
        Subject Public Key Info:
            Public Key Algorithm: rsaEncryption
            RSA Public Key: (1024 bit)
                Modulus (1024 bit):
                    00:b9:0e:80:20:fc:74:49:08:cb:83:87:76:e4:42:
                    03:42:6e:56:1b:ae:73:43:9b:a6:cf:5d:33:1d:37:
                    cf:b5:22:bc:79:5e:6a:69:02:3e:e2:08:c5:f5:be:
                    ee:ef:df:4f:85:41:a2:5f:d3:76:39:3f:61:56:14:
                    1f:c1:cc:ec:45:e3:b2:e2:b0:e8:20:9f:a9:e7:8a:
                    b8:ed:3f:e4:6f:86:d8:e5:d5:3b:fe:47:e8:8f:51:
                    ee:dd:b6:7f:36:6b:c7:75:f7:78:04:df:ac:51:b3:
                    25:65:04:ab:0d:ce:db:5e:3a:db:6a:8f:da:69:46:
                    c7:92:f2:b3:ba:6c:90:3d:71
                Exponent: 65537 (0x10001)
        X509v3 extensions:
            X509v3 Basic Constraints: 
                CA:FALSE
            Netscape Comment: 
                OpenSSL Generated Certificate
            X509v3 Subject Key Identifier: 
                CB:F2:C4:A9:D8:FB:EB:6D:99:08:AB:41:10:5D:9F:90:77:73:E5:AA
            X509v3 Authority Key Identifier: 
                DirName:/C=KR/ST=KyungGi-Do/L=Suwon-Si/O=Samsung Elec./CN=CA
                serial:F2:5B:40:5B:C2:B7:D0:64

    Signature Algorithm: sha1WithRSAEncryption
        38:fc:55:d5:e9:ae:c2:64:71:3d:ec:7d:b3:b3:a2:3c:cc:81:
        97:19:5d:88:b1:a9:64:44:0a:74:80:80:5d:b8:c2:1f:8b:e6:
        8f:ae:03:e1:61:ba:68:ff:16:2e:8e:c4:81:44:ce:ac:06:db:
        c1:57:d3:e5:a3:f6:e2:02:78:b5:a3:ef:04:57:3a:59:f4:df:
        46:d2:18:61:8b:06:fc:57:15:39:0f:22:c7:81:3c:df:51:9e:
        c1:ac:b4:21:81:4b:1f:90:36:9a:dc:6b:4d:5d:7d:2a:e5:ab:
        d9:fe:5c:58:17:c3:58:01:a2:3d:d5:f9:e4:d8:e8:fe:be:e1:
        da:8d:30:e2:22:ef:59:48:8f:0f:ba:09:66:64:96:85:d5:b1:
        90:b6:51:cc:99:35:5b:d9:e6:c4:57:07:98:c7:f5:68:7d:e2:
        59:40:82:ae:9f:64:02:47:43:69:27:4a:9c:e4:70:b4:a9:20:
        c1:4f:10:9a:50:eb:c1:52:75:a6:72:84:cc:92:b4:cd:e1:36:
        e8:1a:ad:19:dc:0e:a2:49:e8:c8:0d:cd:ea:97:53:fc:a4:ea:
        0d:16:81:af:41:38:90:b2:c8:69:f4:1c:55:1c:18:84:1b:b4:
        82:c9:c0:c7:45:d8:6c:3a:b6:0e:9b:89:f1:20:c0:a9:0d:cf:
        b9:ae:84:19:7f:4c:2b:be:46:4d:61:b3:bc:56:ed:a2:01:4d:
        46:a9:2d:bb:3b:73:5b:18:fc:eb:7f:60:d5:ac:60:92:f4:c0:
        73:14:54:f1:be:c5:90:e9:f0:37:69:20:cb:a7:e9:74:52:e4:
        30:38:b9:20:44:5e:9d:eb:86:ae:ed:38:8d:7d:32:59:d7:d7:
        0b:8e:78:28:a3:3b:5e:f5:a4:35:f7:fe:e9:19:4c:7a:82:c0:
        19:0f:99:bb:49:ba:38:8e:78:5c:5f:a5:7c:f7:58:aa:53:6c:
        d0:bd:6a:4a:87:e7:27:f8:7a:75:cf:0d:d0:98:93:5d:8f:e2:
        85:cf:4c:93:18:34:bf:40:4c:b9:16:00:1d:ec:ce:bd:93:78:
        46:80:d9:89:a5:52:41:db:f0:8b:13:f0:07:7c:35:dc:69:69:
        16:67:31:60:ea:27:34:cb:8a:9b:d9:98:48:f6:fa:77:74:9d:
        07:a8:60:df:74:e9:e1:25:5f:83:78:0d:69:37:b4:a5:78:7d:
        0d:0f:e0:17:b9:42:7f:9e:41:33:5a:f3:b0:80:3e:f2:ed:5e:
        93:60:8a:4e:88:a2:5e:40:ae:f9:ec:11:cb:76:0d:b6:ee:54:
        31:f0:a3:37:9e:0f:22:c4:b8:c5:63:24:8c:c5:a9:24:c9:1b:
        27:c6:1b:69:21:08:8c:33
-----BEGIN CERTIFICATE-----
MIIEdjCCAl6gAwIBAgIBCTANBgkqhkiG9w0BAQUFADBaMQswCQYDVQQGEwJLUjET
MBEGA1UECBMKS3l1bmdHaS1EbzERMA8GA1UEBxMIU3V3b24tU2kxFjAUBgNVBAoT
DVNhbXN1bmcgRWxlYy4xCzAJBgNVBAMTAkNBMB4XDTA5MDMxMTEwNDk1MloXDTEw
MDMxMTEwNDk1MlowUzELMAkGA1UEBhMCS1IxEzARBgNVBAgTCkt5dW5nR2ktRG8x
FjAUBgNVBAoTDVNhbXN1bmcgRWxlYy4xFzAVBgNVBAMTDk9DU1AgUmVzcG9uZGVy
MIGfMA0GCSqGSIb3DQEBAQUAA4GNADCBiQKBgQC5DoAg/HRJCMuDh3bkQgNCblYb
rnNDm6bPXTMdN8+1Irx5XmppAj7iCMX1vu7v30+FQaJf03Y5P2FWFB/BzOxF47Li
sOggn6nnirjtP+Rvhtjl1Tv+R+iPUe7dtn82a8d193gE36xRsyVlBKsNztteOttq
j9ppRseS8rO6bJA9cQIDAQABo4HRMIHOMAkGA1UdEwQCMAAwLAYJYIZIAYb4QgEN
BB8WHU9wZW5TU0wgR2VuZXJhdGVkIENlcnRpZmljYXRlMB0GA1UdDgQWBBTL8sSp
2PvrbZkIq0EQXZ+Qd3PlqjB0BgNVHSMEbTBroV6kXDBaMQswCQYDVQQGEwJLUjET
MBEGA1UECBMKS3l1bmdHaS1EbzERMA8GA1UEBxMIU3V3b24tU2kxFjAUBgNVBAoT
DVNhbXN1bmcgRWxlYy4xCzAJBgNVBAMTAkNBggkA8ltAW8K30GQwDQYJKoZIhvcN
AQEFBQADggIBADj8VdXprsJkcT3sfbOzojzMgZcZXYixqWRECnSAgF24wh+L5o+u
A+Fhumj/Fi6OxIFEzqwG28FX0+Wj9uICeLWj7wRXOln030bSGGGLBvxXFTkPIseB
PN9RnsGstCGBSx+QNprca01dfSrlq9n+XFgXw1gBoj3V+eTY6P6+4dqNMOIi71lI
jw+6CWZkloXVsZC2UcyZNVvZ5sRXB5jH9Wh94llAgq6fZAJHQ2knSpzkcLSpIMFP
EJpQ68FSdaZyhMyStM3hNugarRncDqJJ6MgNzeqXU/yk6g0Wga9BOJCyyGn0HFUc
GIQbtILJwMdF2Gw6tg6bifEgwKkNz7muhBl/TCu+Rk1hs7xW7aIBTUapLbs7c1sY
/Ot/YNWsYJL0wHMUVPG+xZDp8DdpIMun6XRS5DA4uSBEXp3rhq7tOI19MlnX1wuO
eCijO171pDX3/ukZTHqCwBkPmbtJujiOeFxfpXz3WKpTbNC9akqH5yf4enXPDdCY
k12P4oXPTJMYNL9ATLkWAB3szr2TeEaA2YmlUkHb8IsT8Ad8NdxpaRZnMWDqJzTL
ipvZmEj2+nd0nQeoYN906eElX4N4DWk3tKV4fQ0P4Be5Qn+eQTNa87CAPvLtXpNg
ik6Iol5ArvnsEct2DbbuVDHwozeeDyLEuMVjJIzFqSTJGyfGG2khCIwz
-----END CERTIFICATE-----
