Certificate:
    Data:
        Version: 3 (0x2)
        Serial Number: 10 (0xa)
        Signature Algorithm: sha1WithRSAEncryption
        Issuer: C=KR, ST=KyungGi-Do, L=Suwon-Si, O=Samsung Elec., CN=CA
        Validity
            Not Before: Mar 13 01:19:18 2009 GMT
            Not After : Mar 13 01:19:18 2010 GMT
        Subject: C=KR, ST=KyungGi-Do, O=Samsung Elec., CN=First certificate to test OCSP
        Subject Public Key Info:
            Public Key Algorithm: rsaEncryption
            RSA Public Key: (1024 bit)
                Modulus (1024 bit):
                    00:c0:a9:51:63:19:e2:cc:f3:9d:19:d8:75:90:ab:
                    13:40:a3:3f:9d:dc:ef:48:42:0d:00:36:db:ea:68:
                    fd:b9:15:34:a9:af:0f:52:2b:57:2e:03:74:13:41:
                    b4:59:69:7e:f6:e1:54:42:8d:c3:f4:85:2b:ff:07:
                    97:a4:2f:5b:e4:13:be:72:ef:65:e7:59:be:ed:14:
                    71:82:cc:09:03:50:99:66:08:34:1a:41:45:e6:e3:
                    37:98:32:6a:15:d4:32:63:f7:26:6c:5a:ed:45:bd:
                    bb:aa:be:33:4b:9c:cb:b2:03:13:e3:2d:6f:61:57:
                    2a:e8:e8:44:0f:59:ea:e7:bf
                Exponent: 65537 (0x10001)
        X509v3 extensions:
            Authority Information Access: 
                OCSP - URI:http://127.0.0.1:81/0002

    Signature Algorithm: sha1WithRSAEncryption
        c2:1a:cb:28:cf:52:fa:67:16:85:c5:cb:7b:b8:4c:75:20:06:
        62:ab:43:9f:95:f6:d8:98:ab:26:ec:89:32:d6:14:15:cb:5d:
        5c:17:a4:4f:b5:c7:0e:9c:3e:f3:f0:11:ea:db:9d:5b:29:e8:
        8d:14:1e:bb:46:1e:10:68:01:4f:3a:1b:40:4a:4c:a2:47:b4:
        b5:e6:c4:97:ce:df:56:a5:29:60:f5:e2:6e:d6:29:01:b8:23:
        2a:58:89:d3:5f:6a:06:28:b6:b6:5b:0f:c7:ae:62:d2:9b:32:
        06:ac:82:c4:f0:a1:fe:89:af:99:23:e4:7c:98:76:b0:e4:64:
        6b:17:24:67:fa:f4:41:65:4e:c6:1d:cc:89:52:8c:4a:52:26:
        8a:42:5b:7f:1a:93:d0:53:93:57:65:3f:6f:23:17:1c:68:13:
        58:13:50:f7:9f:a5:32:2e:5f:20:23:9e:b4:a2:75:fb:a7:d8:
        3a:c8:6c:86:18:b8:e0:09:08:c9:ec:b2:a6:6b:43:c2:c7:af:
        b6:c2:a4:97:cc:35:d5:06:38:1d:73:7f:4b:ca:54:9f:b6:94:
        2d:82:81:62:37:b8:74:8a:33:1c:ed:52:4f:8f:5b:88:fd:b4:
        61:97:2e:b9:2b:99:0b:5a:f6:2a:03:bc:e2:6f:d1:16:cc:da:
        be:97:26:06:e8:50:1f:e7:01:ec:5f:d8:d7:ca:74:84:70:48:
        55:3c:6f:c8:31:ed:0c:39:7a:7f:ed:81:7a:ed:f4:3b:e1:06:
        07:1d:f1:3b:81:ae:7d:1c:c7:6a:74:d9:a0:de:3f:ce:f4:d1:
        9b:ea:43:f7:e0:46:7e:ae:a2:42:2b:58:3d:a3:c3:1c:37:2d:
        b7:6b:5d:3a:64:9f:97:e1:a4:1b:7e:63:06:1c:7b:3b:fa:73:
        a3:41:a9:65:bd:3f:42:38:ab:27:cc:07:b4:d2:0f:f8:04:26:
        47:17:55:a6:30:83:81:87:28:55:7f:c1:53:ba:f1:09:5a:78:
        cb:05:1a:08:45:42:89:78:0e:2d:a3:ed:a3:d0:70:5c:bc:0f:
        f5:ee:52:dd:04:37:25:d2:20:e9:d9:e7:08:ef:39:83:e3:71:
        4f:87:1d:1b:20:57:e1:7e:18:c8:30:1d:16:c5:5a:8b:8b:b3:
        f7:28:c8:7a:7f:e1:9a:60:25:49:bc:60:c0:95:3f:8d:8a:67:
        af:2d:ca:d5:e0:70:f1:07:2c:77:ea:61:72:64:cb:b5:56:fc:
        9d:42:d4:99:19:ae:75:4d:61:0b:49:42:fb:fa:25:44:de:fa:
        d7:98:39:7c:32:3e:9c:57:a9:51:82:63:f5:93:dd:fd:da:a8:
        04:96:67:8e:c6:2b:5f:59
-----BEGIN CERTIFICATE-----
MIID7DCCAdSgAwIBAgIBCjANBgkqhkiG9w0BAQUFADBaMQswCQYDVQQGEwJLUjET
MBEGA1UECBMKS3l1bmdHaS1EbzERMA8GA1UEBxMIU3V3b24tU2kxFjAUBgNVBAoT
DVNhbXN1bmcgRWxlYy4xCzAJBgNVBAMTAkNBMB4XDTA5MDMxMzAxMTkxOFoXDTEw
MDMxMzAxMTkxOFowYzELMAkGA1UEBhMCS1IxEzARBgNVBAgTCkt5dW5nR2ktRG8x
FjAUBgNVBAoTDVNhbXN1bmcgRWxlYy4xJzAlBgNVBAMTHkZpcnN0IGNlcnRpZmlj
YXRlIHRvIHRlc3QgT0NTUDCBnzANBgkqhkiG9w0BAQEFAAOBjQAwgYkCgYEAwKlR
YxnizPOdGdh1kKsTQKM/ndzvSEINADbb6mj9uRU0qa8PUitXLgN0E0G0WWl+9uFU
Qo3D9IUr/weXpC9b5BO+cu9l51m+7RRxgswJA1CZZgg0GkFF5uM3mDJqFdQyY/cm
bFrtRb27qr4zS5zLsgMT4y1vYVcq6OhED1nq578CAwEAAaM4MDYwNAYIKwYBBQUH
AQEEKDAmMCQGCCsGAQUFBzABhhhodHRwOi8vMTI3LjAuMC4xOjgxLzAwMDIwDQYJ
KoZIhvcNAQEFBQADggIBAMIayyjPUvpnFoXFy3u4THUgBmKrQ5+V9tiYqybsiTLW
FBXLXVwXpE+1xw6cPvPwEerbnVsp6I0UHrtGHhBoAU86G0BKTKJHtLXmxJfO31al
KWD14m7WKQG4IypYidNfagYotrZbD8euYtKbMgasgsTwof6Jr5kj5HyYdrDkZGsX
JGf69EFlTsYdzIlSjEpSJopCW38ak9BTk1dlP28jFxxoE1gTUPefpTIuXyAjnrSi
dfun2DrIbIYYuOAJCMnssqZrQ8LHr7bCpJfMNdUGOB1zf0vKVJ+2lC2CgWI3uHSK
MxztUk+PW4j9tGGXLrkrmQta9ioDvOJv0RbM2r6XJgboUB/nAexf2NfKdIRwSFU8
b8gx7Qw5en/tgXrt9DvhBgcd8TuBrn0cx2p02aDeP8700ZvqQ/fgRn6uokIrWD2j
wxw3LbdrXTpkn5fhpBt+YwYcezv6c6NBqWW9P0I4qyfMB7TSD/gEJkcXVaYwg4GH
KFV/wVO68QlaeMsFGghFQol4Di2j7aPQcFy8D/XuUt0ENyXSIOnZ5wjvOYPjcU+H
HRsgV+F+GMgwHRbFWouLs/coyHp/4ZpgJUm8YMCVP42KZ68tytXgcPEHLHfqYXJk
y7VW/J1C1JkZrnVNYQtJQvv6JUTe+teYOXwyPpxXqVGCY/WT3f3aqASWZ47GK19Z
-----END CERTIFICATE-----
