Certificate:
    Data:
        Version: 3 (0x2)
        Serial Number: 11 (0xb)
        Signature Algorithm: sha1WithRSAEncryption
        Issuer: C=KR, ST=KyungGi-Do, L=Suwon-Si, O=Samsung Elec., CN=CA
        Validity
            Not Before: Mar 13 02:27:03 2009 GMT
            Not After : Mar 13 02:27:03 2010 GMT
        Subject: C=KR, ST=KyungGi-Do, O=Samsung Elec., CN=First certificate to test OCSP
        Subject Public Key Info:
            Public Key Algorithm: rsaEncryption
            RSA Public Key: (1024 bit)
                Modulus (1024 bit):
                    00:c0:a9:51:63:19:e2:cc:f3:9d:19:d8:75:90:ab:
                    13:40:a3:3f:9d:dc:ef:48:42:0d:00:36:db:ea:68:
                    fd:b9:15:34:a9:af:0f:52:2b:57:2e:03:74:13:41:
                    b4:59:69:7e:f6:e1:54:42:8d:c3:f4:85:2b:ff:07:
                    97:a4:2f:5b:e4:13:be:72:ef:65:e7:59:be:ed:14:
                    71:82:cc:09:03:50:99:66:08:34:1a:41:45:e6:e3:
                    37:98:32:6a:15:d4:32:63:f7:26:6c:5a:ed:45:bd:
                    bb:aa:be:33:4b:9c:cb:b2:03:13:e3:2d:6f:61:57:
                    2a:e8:e8:44:0f:59:ea:e7:bf
                Exponent: 65537 (0x10001)
        X509v3 extensions:
            Authority Information Access: 
                OCSP - URI:http://127.0.0.1:82/0003

    Signature Algorithm: sha1WithRSAEncryption
        ae:34:5f:7e:66:8f:b1:5c:eb:da:31:33:60:29:43:c6:be:d7:
        1b:4e:22:97:41:9e:7a:0f:7f:e0:3b:d0:6e:6a:50:ba:a1:1f:
        f0:78:e6:b0:a6:a2:08:c1:6f:5b:db:9f:42:a0:ba:8e:6b:99:
        c3:91:a1:81:16:79:65:6c:bc:ca:76:b7:06:d9:89:ba:ad:12:
        32:32:b7:c3:c3:18:e2:7d:d5:88:4c:19:ab:33:03:70:c1:b3:
        14:1e:f4:b3:93:c9:73:94:f5:38:0a:52:da:b9:ef:76:32:fd:
        6d:d3:a2:ff:13:52:da:e1:d5:d6:8e:db:35:5b:df:dd:60:aa:
        99:2d:4e:bb:d4:08:43:8e:86:3c:28:51:bc:5e:d0:bd:08:7a:
        62:c7:ae:73:f3:92:60:b6:59:19:f3:ca:8a:fe:70:1a:67:c7:
        7e:95:79:f1:79:2c:56:2c:17:28:03:86:49:86:54:e0:3b:f2:
        c1:ef:0f:12:cb:f9:4c:0d:fe:b9:7a:23:13:bc:67:ce:6b:d9:
        9a:68:68:71:00:ab:aa:f7:43:1a:1c:be:35:dd:69:cc:88:50:
        41:db:5a:41:e5:a5:9a:bc:2d:2b:fd:0d:52:e8:c5:ac:13:9e:
        d4:99:12:2d:6d:01:10:e6:44:87:07:b2:b9:b6:54:84:69:c9:
        76:1b:c6:a5:cc:58:7b:82:14:78:9b:f1:79:19:25:44:86:56:
        e1:ce:0c:bf:7a:4e:23:d7:12:f4:b6:60:d6:1d:44:db:d6:97:
        89:a9:54:36:75:91:d6:ef:88:01:94:cd:52:d4:6d:b3:7e:6d:
        61:75:fc:e0:c8:ad:ee:0a:b2:f9:e2:33:42:08:c3:f9:d1:46:
        6f:50:47:2d:51:e3:25:c3:cc:c5:1f:a9:04:8b:90:29:8f:1f:
        94:c9:de:c2:16:1a:60:e7:a0:03:65:17:3e:45:c5:5a:66:f2:
        ff:9d:1d:1f:4d:ed:f3:92:76:70:a2:7d:43:ef:6d:e8:23:b8:
        9d:ad:dd:24:0b:59:22:1a:5a:0b:25:2e:55:a1:57:5b:c9:40:
        cc:60:3e:a9:73:29:94:8e:83:dc:4e:25:54:6a:79:dc:f2:71:
        28:4d:c9:ec:b4:96:ad:36:8c:cb:e0:cb:54:0e:1f:e9:86:0b:
        c0:32:c2:66:3b:35:e5:45:54:a0:1d:2c:3e:c2:fb:a0:b0:b2:
        d1:7a:cc:fc:1f:37:81:8a:89:af:fd:60:e8:50:95:33:4a:12:
        98:7f:f6:51:c4:de:06:d9:8c:d0:11:b7:fb:a8:07:b4:8a:70:
        a2:3b:dc:5f:1b:d3:46:f9:e4:c7:46:b3:e9:38:bd:20:6f:7c:
        6b:d6:07:4d:90:c7:67:0a
-----BEGIN CERTIFICATE-----
MIID7DCCAdSgAwIBAgIBCzANBgkqhkiG9w0BAQUFADBaMQswCQYDVQQGEwJLUjET
MBEGA1UECBMKS3l1bmdHaS1EbzERMA8GA1UEBxMIU3V3b24tU2kxFjAUBgNVBAoT
DVNhbXN1bmcgRWxlYy4xCzAJBgNVBAMTAkNBMB4XDTA5MDMxMzAyMjcwM1oXDTEw
MDMxMzAyMjcwM1owYzELMAkGA1UEBhMCS1IxEzARBgNVBAgTCkt5dW5nR2ktRG8x
FjAUBgNVBAoTDVNhbXN1bmcgRWxlYy4xJzAlBgNVBAMTHkZpcnN0IGNlcnRpZmlj
YXRlIHRvIHRlc3QgT0NTUDCBnzANBgkqhkiG9w0BAQEFAAOBjQAwgYkCgYEAwKlR
YxnizPOdGdh1kKsTQKM/ndzvSEINADbb6mj9uRU0qa8PUitXLgN0E0G0WWl+9uFU
Qo3D9IUr/weXpC9b5BO+cu9l51m+7RRxgswJA1CZZgg0GkFF5uM3mDJqFdQyY/cm
bFrtRb27qr4zS5zLsgMT4y1vYVcq6OhED1nq578CAwEAAaM4MDYwNAYIKwYBBQUH
AQEEKDAmMCQGCCsGAQUFBzABhhhodHRwOi8vMTI3LjAuMC4xOjgyLzAwMDMwDQYJ
KoZIhvcNAQEFBQADggIBAK40X35mj7Fc69oxM2ApQ8a+1xtOIpdBnnoPf+A70G5q
ULqhH/B45rCmogjBb1vbn0Kguo5rmcORoYEWeWVsvMp2twbZibqtEjIyt8PDGOJ9
1YhMGaszA3DBsxQe9LOTyXOU9TgKUtq573Yy/W3Tov8TUtrh1daO2zVb391gqpkt
TrvUCEOOhjwoUbxe0L0IemLHrnPzkmC2WRnzyor+cBpnx36VefF5LFYsFygDhkmG
VOA78sHvDxLL+UwN/rl6IxO8Z85r2ZpoaHEAq6r3QxocvjXdacyIUEHbWkHlpZq8
LSv9DVLoxawTntSZEi1tARDmRIcHsrm2VIRpyXYbxqXMWHuCFHib8XkZJUSGVuHO
DL96TiPXEvS2YNYdRNvWl4mpVDZ1kdbviAGUzVLUbbN+bWF1/ODIre4KsvniM0II
w/nRRm9QRy1R4yXDzMUfqQSLkCmPH5TJ3sIWGmDnoANlFz5FxVpm8v+dHR9N7fOS
dnCifUPvbegjuJ2t3SQLWSIaWgslLlWhV1vJQMxgPqlzKZSOg9xOJVRqedzycShN
yey0lq02jMvgy1QOH+mGC8AywmY7NeVFVKAdLD7C+6CwstF6zPwfN4GKia/9YOhQ
lTNKEph/9lHE3gbZjNARt/uoB7SKcKI73F8b00b55MdGs+k4vSBvfGvWB02Qx2cK
-----END CERTIFICATE-----
