Certificate:
    Data:
        Version: 3 (0x2)
        Serial Number: 12 (0xc)
        Signature Algorithm: sha1WithRSAEncryption
        Issuer: C=KR, ST=KyungGi-Do, L=Suwon-Si, O=Samsung Elec., CN=CA
        Validity
            Not Before: Mar 13 02:37:59 2009 GMT
            Not After : Mar 13 02:37:59 2010 GMT
        Subject: C=KR, ST=KyungGi-Do, O=Samsung Elec., CN=OCSP Responder
        Subject Public Key Info:
            Public Key Algorithm: rsaEncryption
            RSA Public Key: (1024 bit)
                Modulus (1024 bit):
                    00:b9:0e:80:20:fc:74:49:08:cb:83:87:76:e4:42:
                    03:42:6e:56:1b:ae:73:43:9b:a6:cf:5d:33:1d:37:
                    cf:b5:22:bc:79:5e:6a:69:02:3e:e2:08:c5:f5:be:
                    ee:ef:df:4f:85:41:a2:5f:d3:76:39:3f:61:56:14:
                    1f:c1:cc:ec:45:e3:b2:e2:b0:e8:20:9f:a9:e7:8a:
                    b8:ed:3f:e4:6f:86:d8:e5:d5:3b:fe:47:e8:8f:51:
                    ee:dd:b6:7f:36:6b:c7:75:f7:78:04:df:ac:51:b3:
                    25:65:04:ab:0d:ce:db:5e:3a:db:6a:8f:da:69:46:
                    c7:92:f2:b3:ba:6c:90:3d:71
                Exponent: 65537 (0x10001)
        X509v3 extensions:
            X509v3 Extended Key Usage: 
                OCSP Signing
    Signature Algorithm: sha1WithRSAEncryption
        83:b5:a0:1e:ef:2c:c8:07:9b:9b:e3:cc:d4:af:39:f0:cb:88:
        bd:8e:8b:e2:66:95:43:4a:a7:4d:19:9b:44:1b:99:4a:57:2d:
        1e:38:d6:06:9b:49:99:17:57:37:74:bd:fd:3f:63:2e:8f:5e:
        87:00:66:bc:29:04:0f:34:a5:85:5b:e4:85:17:6f:3e:a4:3e:
        e6:97:dd:90:64:1b:00:6a:37:e0:29:7a:3d:76:d7:9b:ff:e5:
        08:8f:d1:8d:77:f8:de:44:f7:00:b8:d3:d8:e8:07:7a:28:2a:
        26:ca:63:b1:47:69:3b:c4:8c:ce:af:1e:15:53:ec:31:92:ba:
        02:f4:e5:51:d9:dd:c7:37:44:9f:d3:28:fd:fb:05:ab:db:06:
        51:2b:84:bb:7a:b7:99:1c:f6:8f:d1:37:ac:aa:38:16:f1:08:
        e1:ee:a1:43:b3:d9:fb:ea:83:9a:cc:e7:75:3e:98:79:86:2c:
        60:32:08:43:a7:01:f9:75:cc:2e:77:8a:de:85:04:5a:4c:90:
        5b:64:29:33:38:14:bd:7e:e4:1e:0b:7c:47:14:23:57:94:e5:
        ca:53:dd:c4:30:83:77:b7:42:e6:5f:1a:02:d4:6c:08:8a:55:
        78:1d:3f:50:0b:0e:bf:03:af:4c:f7:a6:7a:da:33:f3:a6:62:
        5e:25:89:e9:a8:f4:7c:06:16:6e:28:c5:f9:82:4b:b3:39:b0:
        bb:72:d0:15:5e:dd:ba:d5:bd:b1:7d:50:22:1d:92:10:65:bf:
        99:45:01:0b:d0:a5:e0:5f:37:c3:d3:92:58:28:9b:97:c5:96:
        a5:2e:27:fc:86:04:11:9a:1c:84:0a:f2:37:51:27:1d:df:e8:
        1a:c4:94:d1:53:39:7f:27:eb:16:ca:27:77:d1:f8:46:fe:d7:
        e8:ab:06:94:87:66:dc:03:c4:cb:a9:9d:21:0c:f4:93:d0:d3:
        d5:45:a5:56:28:37:d6:81:be:9c:18:98:b3:b1:f2:b9:1a:ad:
        98:e8:92:39:a2:eb:c5:f4:d0:2f:82:09:ce:7e:dd:0e:94:cc:
        80:8e:e5:af:04:06:67:04:c1:23:ee:4a:06:c0:5c:ac:75:b1:
        ed:e2:d0:8f:8d:8b:23:3a:94:3b:41:78:48:7c:c8:f7:dc:53:
        1d:0b:fa:14:70:0c:ed:d3:8b:84:4c:81:d5:f0:d7:b2:3a:27:
        e6:82:ad:12:18:4d:19:b3:65:e6:de:fa:14:11:10:c8:66:cc:
        f7:b2:08:af:90:02:62:51:d1:31:aa:7e:f9:1c:b4:99:83:b8:
        e3:26:18:78:f3:7f:3a:c7:b5:59:eb:cb:32:8b:39:a4:86:14:
        0a:55:3e:1d:24:56:2f:97
-----BEGIN CERTIFICATE-----
MIIDuzCCAaOgAwIBAgIBDDANBgkqhkiG9w0BAQUFADBaMQswCQYDVQQGEwJLUjET
MBEGA1UECBMKS3l1bmdHaS1EbzERMA8GA1UEBxMIU3V3b24tU2kxFjAUBgNVBAoT
DVNhbXN1bmcgRWxlYy4xCzAJBgNVBAMTAkNBMB4XDTA5MDMxMzAyMzc1OVoXDTEw
MDMxMzAyMzc1OVowUzELMAkGA1UEBhMCS1IxEzARBgNVBAgTCkt5dW5nR2ktRG8x
FjAUBgNVBAoTDVNhbXN1bmcgRWxlYy4xFzAVBgNVBAMTDk9DU1AgUmVzcG9uZGVy
MIGfMA0GCSqGSIb3DQEBAQUAA4GNADCBiQKBgQC5DoAg/HRJCMuDh3bkQgNCblYb
rnNDm6bPXTMdN8+1Irx5XmppAj7iCMX1vu7v30+FQaJf03Y5P2FWFB/BzOxF47Li
sOggn6nnirjtP+Rvhtjl1Tv+R+iPUe7dtn82a8d193gE36xRsyVlBKsNztteOttq
j9ppRseS8rO6bJA9cQIDAQABoxcwFTATBgNVHSUEDDAKBggrBgEFBQcDCTANBgkq
hkiG9w0BAQUFAAOCAgEAg7WgHu8syAebm+PM1K858MuIvY6L4maVQ0qnTRmbRBuZ
SlctHjjWBptJmRdXN3S9/T9jLo9ehwBmvCkEDzSlhVvkhRdvPqQ+5pfdkGQbAGo3
4Cl6PXbXm//lCI/RjXf43kT3ALjT2OgHeigqJspjsUdpO8SMzq8eFVPsMZK6AvTl
UdndxzdEn9Mo/fsFq9sGUSuEu3q3mRz2j9E3rKo4FvEI4e6hQ7PZ++qDmszndT6Y
eYYsYDIIQ6cB+XXMLneK3oUEWkyQW2QpMzgUvX7kHgt8RxQjV5TlylPdxDCDd7dC
5l8aAtRsCIpVeB0/UAsOvwOvTPemetoz86ZiXiWJ6aj0fAYWbijF+YJLszmwu3LQ
FV7dutW9sX1QIh2SEGW/mUUBC9Cl4F83w9OSWCibl8WWpS4n/IYEEZochAryN1En
Hd/oGsSU0VM5fyfrFsond9H4Rv7X6KsGlIdm3APEy6mdIQz0k9DT1UWlVig31oG+
nBiYs7HyuRqtmOiSOaLrxfTQL4IJzn7dDpTMgI7lrwQGZwTBI+5KBsBcrHWx7eLQ
j42LIzqUO0F4SHzI99xTHQv6FHAM7dOLhEyB1fDXsjon5oKtEhhNGbNl5t76FBEQ
yGbM97IIr5ACYlHRMap++Ry0mYO44yYYePN/Ose1WevLMos5pIYUClU+HSRWL5c=
-----END CERTIFICATE-----
