Certificate:
    Data:
        Version: 3 (0x2)
        Serial Number: 13 (0xd)
        Signature Algorithm: sha1WithRSAEncryption
        Issuer: C=KR, ST=KyungGi-Do, L=Suwon-Si, O=Samsung Elec., CN=CA
        Validity
            Not Before: Mar 13 02:39:35 2009 GMT
            Not After : Mar 13 02:39:35 2010 GMT
        Subject: C=KR, ST=KyungGi-Do, O=Samsung Elec., CN=First certificate to test OCSP
        Subject Public Key Info:
            Public Key Algorithm: rsaEncryption
            RSA Public Key: (1024 bit)
                Modulus (1024 bit):
                    00:c0:a9:51:63:19:e2:cc:f3:9d:19:d8:75:90:ab:
                    13:40:a3:3f:9d:dc:ef:48:42:0d:00:36:db:ea:68:
                    fd:b9:15:34:a9:af:0f:52:2b:57:2e:03:74:13:41:
                    b4:59:69:7e:f6:e1:54:42:8d:c3:f4:85:2b:ff:07:
                    97:a4:2f:5b:e4:13:be:72:ef:65:e7:59:be:ed:14:
                    71:82:cc:09:03:50:99:66:08:34:1a:41:45:e6:e3:
                    37:98:32:6a:15:d4:32:63:f7:26:6c:5a:ed:45:bd:
                    bb:aa:be:33:4b:9c:cb:b2:03:13:e3:2d:6f:61:57:
                    2a:e8:e8:44:0f:59:ea:e7:bf
                Exponent: 65537 (0x10001)
        X509v3 extensions:
            Authority Information Access: 
                OCSP - URI:http://127.0.0.1:83/0004

    Signature Algorithm: sha1WithRSAEncryption
        24:50:3d:65:cc:60:62:13:c0:3b:e1:01:0d:17:35:e8:7a:a8:
        05:1e:b3:70:dc:fe:d3:84:7e:71:14:c3:86:73:23:76:d9:bb:
        de:41:b4:02:3b:d7:db:03:6d:1f:44:1e:65:a6:b5:79:80:7f:
        2a:8b:11:f4:71:b1:de:13:17:1c:d3:b2:51:f7:b5:ee:29:27:
        ff:06:96:4f:18:f6:7a:0f:bd:ed:39:d2:ab:ff:1c:b4:21:87:
        f3:fd:ed:2b:fe:19:29:bb:4b:41:d1:48:37:f7:34:fe:f1:92:
        80:85:33:d6:df:bf:d4:40:f4:5f:42:de:22:88:86:11:78:c8:
        ac:9c:f2:87:95:b0:c6:d6:54:40:e3:c1:64:30:5c:46:f6:a1:
        16:64:80:50:20:f8:9c:fe:da:8e:b5:ea:c3:83:18:c8:f3:13:
        95:01:cc:fe:85:bc:be:56:bc:f2:fe:70:c1:fa:86:43:9a:e0:
        7e:cd:8d:f1:d8:d2:35:51:df:9c:46:36:3b:c0:97:75:ac:9c:
        a7:90:ee:92:b9:9f:5d:cc:54:95:5f:69:38:23:cc:cf:c6:0a:
        c8:55:b7:80:b8:93:98:fc:a9:4c:71:e0:dd:f9:27:d1:db:9c:
        0d:54:9a:d0:05:40:97:cc:45:d5:60:a8:c9:bb:4e:c0:c5:b4:
        01:f5:82:d5:5a:8c:28:01:b9:b3:be:bc:25:32:f1:e6:70:e7:
        e4:42:45:4a:d8:06:cb:42:ed:3a:ec:97:42:97:b1:5c:cd:a0:
        99:94:24:a5:94:c6:b3:5e:c9:06:6b:c5:b8:af:26:48:52:bd:
        bb:93:36:1d:01:6c:33:34:3b:a4:ba:76:0b:bc:44:20:8a:d2:
        ee:1d:70:81:94:01:35:69:a5:5b:30:f1:1e:50:9a:a3:20:b0:
        ae:70:f0:28:bc:48:e3:62:f2:1d:84:53:a4:e0:4f:56:6e:5f:
        ba:d1:f0:38:46:5d:c8:06:ab:94:f5:f1:d6:80:55:8f:73:cb:
        64:17:70:6f:38:26:06:9f:9e:68:d4:3c:43:c0:10:fe:a9:99:
        67:8d:d4:0d:c9:d7:04:41:0e:e8:fe:09:41:29:f3:b3:ba:e0:
        3b:b1:09:67:68:82:93:24:23:a2:da:bb:d1:01:2b:28:5f:56:
        27:2b:a4:8f:fd:f3:46:e9:62:67:3b:d6:26:80:f5:06:b8:0f:
        08:dc:22:49:f3:f2:26:ef:b5:db:89:9a:b5:15:3b:45:b2:89:
        35:8b:6d:49:dd:79:d0:49:6c:c4:78:1c:46:f7:4f:34:6f:37:
        17:da:6f:7f:c2:54:5f:70:29:1b:36:c3:44:16:0d:1b:d9:f4:
        ab:bb:2d:87:65:99:6a:d1
-----BEGIN CERTIFICATE-----
MIID7DCCAdSgAwIBAgIBDTANBgkqhkiG9w0BAQUFADBaMQswCQYDVQQGEwJLUjET
MBEGA1UECBMKS3l1bmdHaS1EbzERMA8GA1UEBxMIU3V3b24tU2kxFjAUBgNVBAoT
DVNhbXN1bmcgRWxlYy4xCzAJBgNVBAMTAkNBMB4XDTA5MDMxMzAyMzkzNVoXDTEw
MDMxMzAyMzkzNVowYzELMAkGA1UEBhMCS1IxEzARBgNVBAgTCkt5dW5nR2ktRG8x
FjAUBgNVBAoTDVNhbXN1bmcgRWxlYy4xJzAlBgNVBAMTHkZpcnN0IGNlcnRpZmlj
YXRlIHRvIHRlc3QgT0NTUDCBnzANBgkqhkiG9w0BAQEFAAOBjQAwgYkCgYEAwKlR
YxnizPOdGdh1kKsTQKM/ndzvSEINADbb6mj9uRU0qa8PUitXLgN0E0G0WWl+9uFU
Qo3D9IUr/weXpC9b5BO+cu9l51m+7RRxgswJA1CZZgg0GkFF5uM3mDJqFdQyY/cm
bFrtRb27qr4zS5zLsgMT4y1vYVcq6OhED1nq578CAwEAAaM4MDYwNAYIKwYBBQUH
AQEEKDAmMCQGCCsGAQUFBzABhhhodHRwOi8vMTI3LjAuMC4xOjgzLzAwMDQwDQYJ
KoZIhvcNAQEFBQADggIBACRQPWXMYGITwDvhAQ0XNeh6qAUes3Dc/tOEfnEUw4Zz
I3bZu95BtAI719sDbR9EHmWmtXmAfyqLEfRxsd4TFxzTslH3te4pJ/8Glk8Y9noP
ve050qv/HLQhh/P97Sv+GSm7S0HRSDf3NP7xkoCFM9bfv9RA9F9C3iKIhhF4yKyc
8oeVsMbWVEDjwWQwXEb2oRZkgFAg+Jz+2o616sODGMjzE5UBzP6FvL5WvPL+cMH6
hkOa4H7NjfHY0jVR35xGNjvAl3WsnKeQ7pK5n13MVJVfaTgjzM/GCshVt4C4k5j8
qUxx4N35J9HbnA1UmtAFQJfMRdVgqMm7TsDFtAH1gtVajCgBubO+vCUy8eZw5+RC
RUrYBstC7Trsl0KXsVzNoJmUJKWUxrNeyQZrxbivJkhSvbuTNh0BbDM0O6S6dgu8
RCCK0u4dcIGUATVppVsw8R5QmqMgsK5w8Ci8SONi8h2EU6TgT1ZuX7rR8DhGXcgG
q5T18daAVY9zy2QXcG84JgafnmjUPEPAEP6pmWeN1A3J1wRBDuj+CUEp87O64Dux
CWdogpMkI6Lau9EBKyhfVicrpI/980bpYmc71iaA9Qa4DwjcIknz8ibvtduJmrUV
O0WyiTWLbUndedBJbMR4HEb3TzRvNxfab3/CVF9wKRs2w0QWDRvZ9Ku7LYdlmWrR
-----END CERTIFICATE-----
