Certificate:
    Data:
        Version: 3 (0x2)
        Serial Number: 16 (0x10)
        Signature Algorithm: sha1WithRSAEncryption
        Issuer: C=KR, ST=KyungGi-Do, L=Suwon-Si, O=Samsung Elec., CN=CA
        Validity
            Not Before: Mar 13 03:23:56 2009 GMT
            Not After : Mar 11 03:23:56 2019 GMT
        Subject: C=KR, ST=KyungGi-Do, O=Samsung Elec., CN=First certificate to test OCSP
        Subject Public Key Info:
            Public Key Algorithm: rsaEncryption
            RSA Public Key: (1024 bit)
                Modulus (1024 bit):
                    00:c0:a9:51:63:19:e2:cc:f3:9d:19:d8:75:90:ab:
                    13:40:a3:3f:9d:dc:ef:48:42:0d:00:36:db:ea:68:
                    fd:b9:15:34:a9:af:0f:52:2b:57:2e:03:74:13:41:
                    b4:59:69:7e:f6:e1:54:42:8d:c3:f4:85:2b:ff:07:
                    97:a4:2f:5b:e4:13:be:72:ef:65:e7:59:be:ed:14:
                    71:82:cc:09:03:50:99:66:08:34:1a:41:45:e6:e3:
                    37:98:32:6a:15:d4:32:63:f7:26:6c:5a:ed:45:bd:
                    bb:aa:be:33:4b:9c:cb:b2:03:13:e3:2d:6f:61:57:
                    2a:e8:e8:44:0f:59:ea:e7:bf
                Exponent: 65537 (0x10001)
        X509v3 extensions:
            Authority Information Access: 
                OCSP - URI:http://127.0.0.1:80/0002

    Signature Algorithm: sha1WithRSAEncryption
        75:b9:17:be:1c:06:6f:12:a9:04:1b:63:0b:0d:5c:70:55:e2:
        31:c0:88:71:d0:56:8e:e5:16:e8:3b:47:1a:08:03:93:56:b2:
        9b:a2:04:3c:a8:81:10:5a:18:7b:d2:70:ae:7c:0b:94:b6:6c:
        f2:58:e7:69:82:e5:f2:aa:4e:f3:ac:85:6d:5a:ac:11:53:d2:
        8d:3d:53:ae:ab:f7:f3:c6:f0:ba:f2:e6:7b:2d:74:74:75:fd:
        e0:8d:67:c9:12:d5:f2:93:44:48:66:5b:85:26:7d:95:77:48:
        4f:a4:72:65:67:38:99:47:4e:cd:47:1c:43:7a:0a:58:a6:99:
        1b:1b:01:09:f7:0b:34:8a:3a:8d:10:e2:ca:9c:48:a3:f6:39:
        42:3b:43:e6:f6:81:8b:36:5a:ed:33:98:70:24:ca:4f:18:8b:
        d9:c1:0a:d9:cd:96:33:d0:e8:ac:bd:3f:34:af:86:52:d1:69:
        6e:90:8e:d0:86:bf:b1:04:3d:85:99:0f:e3:c3:e6:60:47:34:
        37:97:f2:a2:69:c4:4e:dc:62:d0:eb:c2:24:77:2e:a3:ba:c1:
        88:a9:b2:b4:fb:79:a6:d4:cf:5e:3f:03:41:25:c4:f3:29:0a:
        fd:b7:78:55:b1:9a:0c:79:32:2f:2e:fe:69:ba:a0:2c:62:bc:
        11:38:c4:47:a8:b0:72:70:d1:50:9f:b9:87:64:f5:12:56:c5:
        f7:ed:8e:23:08:df:d0:0e:1a:6b:25:8c:b3:6b:7c:cc:55:6d:
        90:83:a9:ef:7d:45:04:a6:dc:7c:0d:80:c1:54:22:d1:b8:e2:
        43:cc:ad:75:a2:07:eb:d3:26:da:8a:c4:fb:6f:0b:ac:11:f4:
        01:7f:b9:37:68:ec:1e:60:a2:ae:d6:b2:0b:37:cb:7e:5d:dc:
        ec:14:21:69:84:ff:fc:61:85:b6:bf:7f:d2:af:3c:70:12:c6:
        ba:40:e8:b5:25:56:34:ca:44:f1:ea:15:ad:79:50:ec:44:b7:
        6c:d7:4b:cc:2c:4f:45:01:85:15:76:2a:03:c2:14:9c:3e:bf:
        87:7b:59:d7:aa:2d:48:20:b6:1a:6e:6e:b0:c2:77:22:3c:ea:
        24:d0:f8:62:b0:4b:01:3a:48:be:5f:66:73:0a:46:b3:1f:83:
        41:91:f5:fd:e8:08:08:52:18:3a:8c:6a:19:2c:e3:30:d8:53:
        13:97:62:83:eb:e3:ed:3a:8e:64:25:b1:8a:01:f4:24:14:6d:
        d4:61:c1:c3:8d:c3:89:2c:5f:6e:d8:1e:1d:de:b9:77:06:0b:
        31:63:e4:ce:d9:76:1b:68:48:ea:ec:64:d5:a6:a5:15:29:1d:
        79:af:21:2d:a8:e6:e6:f8
-----BEGIN CERTIFICATE-----
MIID7DCCAdSgAwIBAgIBEDANBgkqhkiG9w0BAQUFADBaMQswCQYDVQQGEwJLUjET
MBEGA1UECBMKS3l1bmdHaS1EbzERMA8GA1UEBxMIU3V3b24tU2kxFjAUBgNVBAoT
DVNhbXN1bmcgRWxlYy4xCzAJBgNVBAMTAkNBMB4XDTA5MDMxMzAzMjM1NloXDTE5
MDMxMTAzMjM1NlowYzELMAkGA1UEBhMCS1IxEzARBgNVBAgTCkt5dW5nR2ktRG8x
FjAUBgNVBAoTDVNhbXN1bmcgRWxlYy4xJzAlBgNVBAMTHkZpcnN0IGNlcnRpZmlj
YXRlIHRvIHRlc3QgT0NTUDCBnzANBgkqhkiG9w0BAQEFAAOBjQAwgYkCgYEAwKlR
YxnizPOdGdh1kKsTQKM/ndzvSEINADbb6mj9uRU0qa8PUitXLgN0E0G0WWl+9uFU
Qo3D9IUr/weXpC9b5BO+cu9l51m+7RRxgswJA1CZZgg0GkFF5uM3mDJqFdQyY/cm
bFrtRb27qr4zS5zLsgMT4y1vYVcq6OhED1nq578CAwEAAaM4MDYwNAYIKwYBBQUH
AQEEKDAmMCQGCCsGAQUFBzABhhhodHRwOi8vMTI3LjAuMC4xOjgwLzAwMDIwDQYJ
KoZIhvcNAQEFBQADggIBAHW5F74cBm8SqQQbYwsNXHBV4jHAiHHQVo7lFug7RxoI
A5NWspuiBDyogRBaGHvScK58C5S2bPJY52mC5fKqTvOshW1arBFT0o09U66r9/PG
8Lry5nstdHR1/eCNZ8kS1fKTREhmW4UmfZV3SE+kcmVnOJlHTs1HHEN6ClimmRsb
AQn3CzSKOo0Q4sqcSKP2OUI7Q+b2gYs2Wu0zmHAkyk8Yi9nBCtnNljPQ6Ky9PzSv
hlLRaW6QjtCGv7EEPYWZD+PD5mBHNDeX8qJpxE7cYtDrwiR3LqO6wYipsrT7eabU
z14/A0ElxPMpCv23eFWxmgx5Mi8u/mm6oCxivBE4xEeosHJw0VCfuYdk9RJWxfft
jiMI39AOGmsljLNrfMxVbZCDqe99RQSm3HwNgMFUItG44kPMrXWiB+vTJtqKxPtv
C6wR9AF/uTdo7B5goq7Wsgs3y35d3OwUIWmE//xhhba/f9KvPHASxrpA6LUlVjTK
RPHqFa15UOxEt2zXS8wsT0UBhRV2KgPCFJw+v4d7WdeqLUggthpubrDCdyI86iTQ
+GKwSwE6SL5fZnMKRrMfg0GR9f3oCAhSGDqMahks4zDYUxOXYoPr4+06jmQlsYoB
9CQUbdRhwcONw4ksX27YHh3euXcGCzFj5M7ZdhtoSOrsZNWmpRUpHXmvIS2o5ub4
-----END CERTIFICATE-----
