Certificate:
    Data:
        Version: 3 (0x2)
        Serial Number: 19 (0x13)
        Signature Algorithm: sha1WithRSAEncryption
        Issuer: C=KR, ST=KyungGi-Do, L=Suwon-Si, O=Samsung Elec., CN=CA
        Validity
            Not Before: Mar 13 03:24:30 2009 GMT
            Not After : Mar 11 03:24:30 2019 GMT
        Subject: C=KR, ST=KyungGi-Do, O=Samsung Elec., CN=First certificate to test OCSP
        Subject Public Key Info:
            Public Key Algorithm: rsaEncryption
            RSA Public Key: (1024 bit)
                Modulus (1024 bit):
                    00:c0:a9:51:63:19:e2:cc:f3:9d:19:d8:75:90:ab:
                    13:40:a3:3f:9d:dc:ef:48:42:0d:00:36:db:ea:68:
                    fd:b9:15:34:a9:af:0f:52:2b:57:2e:03:74:13:41:
                    b4:59:69:7e:f6:e1:54:42:8d:c3:f4:85:2b:ff:07:
                    97:a4:2f:5b:e4:13:be:72:ef:65:e7:59:be:ed:14:
                    71:82:cc:09:03:50:99:66:08:34:1a:41:45:e6:e3:
                    37:98:32:6a:15:d4:32:63:f7:26:6c:5a:ed:45:bd:
                    bb:aa:be:33:4b:9c:cb:b2:03:13:e3:2d:6f:61:57:
                    2a:e8:e8:44:0f:59:ea:e7:bf
                Exponent: 65537 (0x10001)
        X509v3 extensions:
            Authority Information Access: 
                OCSP - URI:http://127.0.0.1:83/0005

    Signature Algorithm: sha1WithRSAEncryption
        9b:ea:5d:a3:f4:b2:04:44:31:6b:64:e4:7d:25:5d:69:1b:25:
        3d:63:d4:3f:2c:0f:c6:60:44:70:18:57:31:be:84:38:e8:53:
        29:dd:5e:f2:5c:8e:41:6d:e8:ea:a7:23:91:b9:f4:c1:20:2c:
        cd:d6:b4:b4:e6:9d:c3:b4:5b:4c:48:dd:3a:cc:cd:9e:0c:93:
        bb:e0:03:43:1c:ab:01:86:4e:67:44:ad:68:3d:e6:00:4d:9e:
        95:5f:86:0f:e4:18:af:3d:76:a4:1b:91:5e:e8:07:2b:aa:62:
        4e:d9:af:f8:15:e7:3c:bb:8c:f4:a9:4f:df:72:f6:b0:6a:36:
        ad:eb:d2:10:02:cb:65:28:a7:4c:4f:98:e1:7b:1e:aa:af:3e:
        61:65:91:58:94:99:26:69:29:06:50:02:44:61:a6:3c:ee:8a:
        7e:db:56:5a:f5:cc:d6:58:6f:a2:40:51:e1:81:fa:3b:b8:4b:
        8d:00:64:b2:99:d3:e7:8a:52:78:b3:67:a1:64:5d:dd:a0:c5:
        54:1d:de:07:29:ef:85:01:d4:e9:24:44:8b:df:9b:f5:ae:80:
        4d:fa:4d:08:76:7c:97:6b:86:74:22:56:d1:87:6b:41:54:66:
        fc:3b:d2:3e:2d:95:c1:46:06:b9:db:0e:8b:e1:be:c8:56:82:
        c3:1d:df:84:b6:50:ee:b8:30:3c:54:07:49:8b:e2:d4:a7:b8:
        35:0d:b6:09:7e:04:01:bb:71:86:8c:50:87:a7:3a:2d:b8:7c:
        24:cd:b1:a6:87:b8:eb:d5:dc:8f:02:21:f9:71:06:34:c4:e5:
        6f:ff:53:4b:dd:33:96:60:8b:6d:bb:03:b1:36:31:2d:02:6c:
        7f:ba:70:0a:78:b8:fb:45:92:84:5b:1e:a7:15:39:13:33:fd:
        6f:a7:95:76:10:1f:b3:cd:11:e8:ed:ce:2c:63:cd:64:23:62:
        c4:21:d6:48:bf:f7:10:b8:da:d5:72:14:ad:5a:a0:5d:4a:2b:
        a0:76:5f:b8:3b:d2:6b:8a:7f:6b:6a:cc:84:eb:6a:be:d9:26:
        2c:bb:38:06:b8:f4:d4:fb:78:85:83:c8:ad:6e:56:f9:67:5f:
        bc:3c:41:b6:f0:6f:d4:45:78:ed:3e:2f:c7:3a:3e:9a:98:68:
        c4:64:79:29:51:19:cd:a6:70:c4:04:30:50:86:9c:f2:54:57:
        b1:e1:7d:4a:d5:34:fc:93:31:6d:64:15:79:31:c0:70:d5:db:
        bc:a0:be:21:22:1e:61:ac:4a:9f:a2:a6:ff:de:52:2e:31:d7:
        5e:39:66:c6:47:55:f6:64:f5:bd:ed:c0:60:b8:59:88:a1:8e:
        8c:5f:20:1b:be:41:51:f4
-----BEGIN CERTIFICATE-----
MIID7DCCAdSgAwIBAgIBEzANBgkqhkiG9w0BAQUFADBaMQswCQYDVQQGEwJLUjET
MBEGA1UECBMKS3l1bmdHaS1EbzERMA8GA1UEBxMIU3V3b24tU2kxFjAUBgNVBAoT
DVNhbXN1bmcgRWxlYy4xCzAJBgNVBAMTAkNBMB4XDTA5MDMxMzAzMjQzMFoXDTE5
MDMxMTAzMjQzMFowYzELMAkGA1UEBhMCS1IxEzARBgNVBAgTCkt5dW5nR2ktRG8x
FjAUBgNVBAoTDVNhbXN1bmcgRWxlYy4xJzAlBgNVBAMTHkZpcnN0IGNlcnRpZmlj
YXRlIHRvIHRlc3QgT0NTUDCBnzANBgkqhkiG9w0BAQEFAAOBjQAwgYkCgYEAwKlR
YxnizPOdGdh1kKsTQKM/ndzvSEINADbb6mj9uRU0qa8PUitXLgN0E0G0WWl+9uFU
Qo3D9IUr/weXpC9b5BO+cu9l51m+7RRxgswJA1CZZgg0GkFF5uM3mDJqFdQyY/cm
bFrtRb27qr4zS5zLsgMT4y1vYVcq6OhED1nq578CAwEAAaM4MDYwNAYIKwYBBQUH
AQEEKDAmMCQGCCsGAQUFBzABhhhodHRwOi8vMTI3LjAuMC4xOjgzLzAwMDUwDQYJ
KoZIhvcNAQEFBQADggIBAJvqXaP0sgREMWtk5H0lXWkbJT1j1D8sD8ZgRHAYVzG+
hDjoUyndXvJcjkFt6OqnI5G59MEgLM3WtLTmncO0W0xI3TrMzZ4Mk7vgA0McqwGG
TmdErWg95gBNnpVfhg/kGK89dqQbkV7oByuqYk7Zr/gV5zy7jPSpT99y9rBqNq3r
0hACy2Uop0xPmOF7HqqvPmFlkViUmSZpKQZQAkRhpjzuin7bVlr1zNZYb6JAUeGB
+ju4S40AZLKZ0+eKUnizZ6FkXd2gxVQd3gcp74UB1OkkRIvfm/WugE36TQh2fJdr
hnQiVtGHa0FUZvw70j4tlcFGBrnbDovhvshWgsMd34S2UO64MDxUB0mL4tSnuDUN
tgl+BAG7cYaMUIenOi24fCTNsaaHuOvV3I8CIflxBjTE5W//U0vdM5Zgi227A7E2
MS0CbH+6cAp4uPtFkoRbHqcVORMz/W+nlXYQH7PNEejtzixjzWQjYsQh1ki/9xC4
2tVyFK1aoF1KK6B2X7g70muKf2tqzITrar7ZJiy7OAa49NT7eIWDyK1uVvlnX7w8
Qbbwb9RFeO0+L8c6PpqYaMRkeSlRGc2mcMQEMFCGnPJUV7HhfUrVNPyTMW1kFXkx
wHDV27ygviEiHmGsSp+ipv/eUi4x1145ZsZHVfZk9b3twGC4WYihjoxfIBu+QVH0
-----END CERTIFICATE-----
