Certificate:
    Data:
        Version: 3 (0x2)
        Serial Number: 21 (0x15)
        Signature Algorithm: sha1WithRSAEncryption
        Issuer: C=KR, ST=KyungGi-Do, L=Suwon-Si, O=Samsung Elec., CN=CA
        Validity
            Not Before: Mar 14 11:35:42 2009 GMT
            Not After : Mar 14 11:35:42 2010 GMT
        Subject: C=KR, ST=KyungGi-Do, O=Samsung Elec., CN=OCSP Responder
        Subject Public Key Info:
            Public Key Algorithm: rsaEncryption
            RSA Public Key: (1024 bit)
                Modulus (1024 bit):
                    00:b9:0e:80:20:fc:74:49:08:cb:83:87:76:e4:42:
                    03:42:6e:56:1b:ae:73:43:9b:a6:cf:5d:33:1d:37:
                    cf:b5:22:bc:79:5e:6a:69:02:3e:e2:08:c5:f5:be:
                    ee:ef:df:4f:85:41:a2:5f:d3:76:39:3f:61:56:14:
                    1f:c1:cc:ec:45:e3:b2:e2:b0:e8:20:9f:a9:e7:8a:
                    b8:ed:3f:e4:6f:86:d8:e5:d5:3b:fe:47:e8:8f:51:
                    ee:dd:b6:7f:36:6b:c7:75:f7:78:04:df:ac:51:b3:
                    25:65:04:ab:0d:ce:db:5e:3a:db:6a:8f:da:69:46:
                    c7:92:f2:b3:ba:6c:90:3d:71
                Exponent: 65537 (0x10001)
        X509v3 extensions:
            OCSP No Check: 

    Signature Algorithm: sha1WithRSAEncryption
        80:91:21:6b:30:15:99:38:e1:5c:74:82:7d:25:f0:ee:15:cb:
        44:f0:01:16:3d:17:09:7f:8e:73:bf:3b:34:52:c7:1d:0f:f6:
        8f:30:34:76:d7:c2:b9:95:14:a0:01:f8:93:de:ff:62:7e:c1:
        79:f2:de:e2:cf:0d:f8:9a:b3:6a:ab:cf:cf:68:12:9f:e2:81:
        7b:05:1f:27:34:a6:f6:68:9c:46:45:cd:d5:02:d7:7d:e0:d9:
        b5:ef:7b:f6:7b:5c:d9:29:ae:f2:55:dd:10:7a:58:74:bc:ef:
        a9:9b:9f:a8:e4:89:99:f0:df:3e:d4:c9:64:85:fa:fa:15:d0:
        d2:20:2c:07:49:55:43:50:f4:0a:fd:dc:20:e5:cf:d5:e7:d6:
        2c:65:af:18:37:13:78:f5:dd:6e:43:a1:aa:be:93:20:be:4c:
        1f:71:47:10:cb:1c:48:62:5a:80:c6:d5:a4:23:c0:06:a0:e5:
        d7:d5:b2:bb:4e:d8:fe:cf:d7:ae:93:ce:bb:ab:96:07:f8:a3:
        fb:e9:4f:04:b0:96:a5:b4:3f:89:2c:d5:c9:cd:95:6c:38:cc:
        68:f3:3c:1b:0f:0e:c6:d2:b8:bc:8e:5a:97:66:eb:b7:9e:c1:
        3a:0c:17:74:e8:4c:91:5b:33:e4:3f:b5:1c:d7:91:e2:6f:5b:
        9c:27:ad:00:c6:30:49:ba:2e:a0:8d:a1:6f:c5:97:e5:b7:58:
        ca:ee:8c:71:4e:3c:7a:f1:82:fc:6e:74:77:53:e5:d1:7a:02:
        35:c2:6b:91:7a:38:2c:17:42:45:2a:a6:b3:e9:e2:7e:80:a0:
        b4:7d:dc:a8:4b:76:34:92:cf:87:76:b8:a8:31:b5:a7:1d:cf:
        93:10:bf:1d:bc:5a:65:1e:95:17:8c:4c:d6:5a:b4:08:a4:b7:
        9c:99:3a:a9:b4:45:c1:aa:5a:62:7f:6e:25:63:01:c3:e3:ad:
        c0:1a:d7:5d:75:07:60:93:73:8e:9e:1e:7c:96:2d:39:b8:1b:
        85:4a:9e:8f:b9:2e:eb:94:c4:83:43:60:87:30:26:0b:9f:26:
        a9:02:81:4a:df:20:08:e0:2c:8f:b8:c5:96:38:7e:b8:c8:88:
        32:e6:d4:ab:e4:13:4e:fe:66:fc:77:ef:e4:1c:5a:76:8d:60:
        e4:f9:d7:be:ed:94:f2:92:e3:b5:5c:28:ea:a4:2d:d6:b6:76:
        64:4b:d4:f1:3a:eb:22:08:b0:f0:a9:31:1a:1d:e4:59:c3:07:
        7b:28:ed:55:ac:e6:bf:da:21:ce:44:77:79:10:a5:5c:66:b3:
        a7:65:e1:15:59:81:f7:48:f4:eb:83:2a:08:1b:4f:08:0b:fd:
        2c:22:21:a7:c7:6b:87:d1
-----BEGIN CERTIFICATE-----
MIIDtzCCAZ+gAwIBAgIBFTANBgkqhkiG9w0BAQUFADBaMQswCQYDVQQGEwJLUjET
MBEGA1UECBMKS3l1bmdHaS1EbzERMA8GA1UEBxMIU3V3b24tU2kxFjAUBgNVBAoT
DVNhbXN1bmcgRWxlYy4xCzAJBgNVBAMTAkNBMB4XDTA5MDMxNDExMzU0MloXDTEw
MDMxNDExMzU0MlowUzELMAkGA1UEBhMCS1IxEzARBgNVBAgTCkt5dW5nR2ktRG8x
FjAUBgNVBAoTDVNhbXN1bmcgRWxlYy4xFzAVBgNVBAMTDk9DU1AgUmVzcG9uZGVy
MIGfMA0GCSqGSIb3DQEBAQUAA4GNADCBiQKBgQC5DoAg/HRJCMuDh3bkQgNCblYb
rnNDm6bPXTMdN8+1Irx5XmppAj7iCMX1vu7v30+FQaJf03Y5P2FWFB/BzOxF47Li
sOggn6nnirjtP+Rvhtjl1Tv+R+iPUe7dtn82a8d193gE36xRsyVlBKsNztteOttq
j9ppRseS8rO6bJA9cQIDAQABoxMwETAPBgkrBgEFBQcwAQUEAgUAMA0GCSqGSIb3
DQEBBQUAA4ICAQCAkSFrMBWZOOFcdIJ9JfDuFctE8AEWPRcJf45zvzs0UscdD/aP
MDR218K5lRSgAfiT3v9ifsF58t7izw34mrNqq8/PaBKf4oF7BR8nNKb2aJxGRc3V
Atd94Nm173v2e1zZKa7yVd0Qelh0vO+pm5+o5ImZ8N8+1Mlkhfr6FdDSICwHSVVD
UPQK/dwg5c/V59YsZa8YNxN49d1uQ6GqvpMgvkwfcUcQyxxIYlqAxtWkI8AGoOXX
1bK7Ttj+z9euk867q5YH+KP76U8EsJaltD+JLNXJzZVsOMxo8zwbDw7G0ri8jlqX
Zuu3nsE6DBd06EyRWzPkP7Uc15Hib1ucJ60AxjBJui6gjaFvxZflt1jK7oxxTjx6
8YL8bnR3U+XRegI1wmuRejgsF0JFKqaz6eJ+gKC0fdyoS3Y0ks+HdrioMbWnHc+T
EL8dvFplHpUXjEzWWrQIpLecmTqptEXBqlpif24lYwHD463AGtdddQdgk3OOnh58
li05uBuFSp6PuS7rlMSDQ2CHMCYLnyapAoFK3yAI4CyPuMWWOH64yIgy5tSr5BNO
/mb8d+/kHFp2jWDk+de+7ZTykuO1XCjqpC3WtnZkS9TxOusiCLDwqTEaHeRZwwd7
KO1VrOa/2iHORHd5EKVcZrOnZeEVWYH3SPTrgyoIG08IC/0sIiGnx2uH0Q==
-----END CERTIFICATE-----
