Certificate:
    Data:
        Version: 3 (0x2)
        Serial Number: 23 (0x17)
        Signature Algorithm: sha1WithRSAEncryption
        Issuer: C=KR, ST=KyungGi-Do, L=Suwon-Si, O=Samsung Elec., CN=CA
        Validity
            Not Before: Mar 16 05:36:43 2009 GMT
            Not After : Mar 16 05:36:43 2010 GMT
        Subject: C=KR, ST=KyungGi-Do, O=Samsung Elec., CN=First certificate to test OCSP
        Subject Public Key Info:
            Public Key Algorithm: rsaEncryption
            RSA Public Key: (1024 bit)
                Modulus (1024 bit):
                    00:c0:a9:51:63:19:e2:cc:f3:9d:19:d8:75:90:ab:
                    13:40:a3:3f:9d:dc:ef:48:42:0d:00:36:db:ea:68:
                    fd:b9:15:34:a9:af:0f:52:2b:57:2e:03:74:13:41:
                    b4:59:69:7e:f6:e1:54:42:8d:c3:f4:85:2b:ff:07:
                    97:a4:2f:5b:e4:13:be:72:ef:65:e7:59:be:ed:14:
                    71:82:cc:09:03:50:99:66:08:34:1a:41:45:e6:e3:
                    37:98:32:6a:15:d4:32:63:f7:26:6c:5a:ed:45:bd:
                    bb:aa:be:33:4b:9c:cb:b2:03:13:e3:2d:6f:61:57:
                    2a:e8:e8:44:0f:59:ea:e7:bf
                Exponent: 65537 (0x10001)
        X509v3 extensions:
            X509v3 Basic Constraints: 
                CA:FALSE
            Netscape Comment: 
                OpenSSL Generated Certificate
            X509v3 Subject Key Identifier: 
                6C:00:26:BD:98:D4:60:DD:06:EA:CA:73:09:35:6A:7E:1F:92:D9:59
            X509v3 Authority Key Identifier: 
                DirName:/C=KR/ST=KyungGi-Do/L=Suwon-Si/O=Samsung Elec./CN=CA
                serial:F2:5B:40:5B:C2:B7:D0:64

    Signature Algorithm: sha1WithRSAEncryption
        5b:8c:6e:80:cd:e0:8f:cc:7d:a4:c1:d6:61:9a:78:93:eb:04:
        85:60:12:e1:1c:6d:0d:2e:fa:2a:1e:c9:08:ac:b5:6d:a8:00:
        c8:8b:e5:1d:72:80:5a:df:d1:c9:88:10:a6:fe:35:62:11:72:
        5f:08:e7:94:f2:0a:0b:79:0e:04:9f:4f:16:d9:45:10:67:c4:
        5e:a2:34:a6:89:f9:67:3c:88:9e:82:d4:d4:28:42:ce:bd:c8:
        0a:cf:b6:9f:a9:7f:a1:5d:21:58:95:64:bd:84:24:2c:00:bf:
        29:ea:b6:f6:d2:b4:b9:03:6b:34:81:cb:5d:a8:fb:55:96:99:
        1a:71:94:cf:37:7e:83:c5:01:a6:cb:cd:38:06:27:49:99:56:
        38:06:19:f7:62:80:24:8c:4f:79:0f:2d:a4:b8:cc:6e:4b:35:
        5a:d2:8e:f1:26:b4:fb:d7:85:0d:7f:c6:a2:a3:20:e5:48:b8:
        0b:ee:a0:7d:a9:6d:e2:88:41:ee:f6:47:a6:1f:52:c2:ca:6c:
        d9:d0:53:0f:a3:db:ee:12:0f:56:cf:51:75:70:9a:1a:02:c4:
        ff:7e:46:77:75:1b:d6:d9:e2:7b:fb:a6:0f:11:49:9f:59:5d:
        2c:d8:0f:61:eb:c4:8f:51:1a:95:ae:dd:33:0e:da:40:90:67:
        6b:a3:7b:4d:9d:a2:53:37:c1:98:a5:c1:f5:b4:a6:dd:5e:ac:
        b3:d3:ef:9d:1a:bc:15:1b:cb:8b:b7:73:ba:bd:3d:b9:6a:18:
        e2:a2:ad:d8:54:5e:ea:81:71:ad:a1:e2:83:c9:89:3c:83:35:
        92:80:65:46:aa:45:45:4f:a3:c5:a4:a3:32:43:05:ec:a4:9f:
        61:5a:14:1a:0b:5b:6e:84:bf:d7:1d:fe:20:eb:c0:45:d4:92:
        f2:56:09:12:dd:1a:0d:75:9d:43:0b:0b:71:0d:c7:1b:38:63:
        b5:75:7b:f2:3e:d6:0d:07:21:ab:73:51:fe:e3:0f:36:b4:33:
        d3:94:f2:ae:42:24:b1:2e:9d:68:69:18:d2:5a:1e:64:a6:67:
        d2:40:f9:de:b5:d5:dd:15:72:de:05:a0:43:c7:b9:13:bd:e5:
        10:fd:52:f1:27:0f:95:5a:a4:cd:5a:ba:c6:7c:bd:14:4e:46:
        51:b1:b9:00:98:23:16:ce:ae:0a:6c:11:67:18:73:e7:d1:aa:
        e9:6e:99:82:b7:2b:f2:e7:8c:8e:b5:2a:76:16:14:57:93:5e:
        a4:7a:ec:f5:96:90:22:88:66:ca:3c:8b:92:95:2c:21:3f:a0:
        9e:56:c5:c2:27:1a:d8:9e:fa:fd:da:3b:96:52:cc:94:cf:5f:
        d3:a8:b0:c0:f5:7c:58:f6
-----BEGIN CERTIFICATE-----
MIIEhjCCAm6gAwIBAgIBFzANBgkqhkiG9w0BAQUFADBaMQswCQYDVQQGEwJLUjET
MBEGA1UECBMKS3l1bmdHaS1EbzERMA8GA1UEBxMIU3V3b24tU2kxFjAUBgNVBAoT
DVNhbXN1bmcgRWxlYy4xCzAJBgNVBAMTAkNBMB4XDTA5MDMxNjA1MzY0M1oXDTEw
MDMxNjA1MzY0M1owYzELMAkGA1UEBhMCS1IxEzARBgNVBAgTCkt5dW5nR2ktRG8x
FjAUBgNVBAoTDVNhbXN1bmcgRWxlYy4xJzAlBgNVBAMTHkZpcnN0IGNlcnRpZmlj
YXRlIHRvIHRlc3QgT0NTUDCBnzANBgkqhkiG9w0BAQEFAAOBjQAwgYkCgYEAwKlR
YxnizPOdGdh1kKsTQKM/ndzvSEINADbb6mj9uRU0qa8PUitXLgN0E0G0WWl+9uFU
Qo3D9IUr/weXpC9b5BO+cu9l51m+7RRxgswJA1CZZgg0GkFF5uM3mDJqFdQyY/cm
bFrtRb27qr4zS5zLsgMT4y1vYVcq6OhED1nq578CAwEAAaOB0TCBzjAJBgNVHRME
AjAAMCwGCWCGSAGG+EIBDQQfFh1PcGVuU1NMIEdlbmVyYXRlZCBDZXJ0aWZpY2F0
ZTAdBgNVHQ4EFgQUbAAmvZjUYN0G6spzCTVqfh+S2VkwdAYDVR0jBG0wa6FepFww
WjELMAkGA1UEBhMCS1IxEzARBgNVBAgTCkt5dW5nR2ktRG8xETAPBgNVBAcTCFN1
d29uLVNpMRYwFAYDVQQKEw1TYW1zdW5nIEVsZWMuMQswCQYDVQQDEwJDQYIJAPJb
QFvCt9BkMA0GCSqGSIb3DQEBBQUAA4ICAQBbjG6AzeCPzH2kwdZhmniT6wSFYBLh
HG0NLvoqHskIrLVtqADIi+UdcoBa39HJiBCm/jViEXJfCOeU8goLeQ4En08W2UUQ
Z8ReojSmiflnPIiegtTUKELOvcgKz7afqX+hXSFYlWS9hCQsAL8p6rb20rS5A2s0
gctdqPtVlpkacZTPN36DxQGmy804BidJmVY4Bhn3YoAkjE95Dy2kuMxuSzVa0o7x
JrT714UNf8aioyDlSLgL7qB9qW3iiEHu9kemH1LCymzZ0FMPo9vuEg9Wz1F1cJoa
AsT/fkZ3dRvW2eJ7+6YPEUmfWV0s2A9h68SPURqVrt0zDtpAkGdro3tNnaJTN8GY
pcH1tKbdXqyz0++dGrwVG8uLt3O6vT25ahjioq3YVF7qgXGtoeKDyYk8gzWSgGVG
qkVFT6PFpKMyQwXspJ9hWhQaC1tuhL/XHf4g68BF1JLyVgkS3RoNdZ1DCwtxDccb
OGO1dXvyPtYNByGrc1H+4w82tDPTlPKuQiSxLp1oaRjSWh5kpmfSQPnetdXdFXLe
BaBDx7kTveUQ/VLxJw+VWqTNWrrGfL0UTkZRsbkAmCMWzq4KbBFnGHPn0arpbpmC
tyvy54yOtSp2FhRXk16keuz1lpAiiGbKPIuSlSwhP6CeVsXCJxrYnvr92juWUsyU
z1/TqLDA9XxY9g==
-----END CERTIFICATE-----
