Certificate:
    Data:
        Version: 3 (0x2)
        Serial Number: 24 (0x18)
        Signature Algorithm: sha1WithRSAEncryption
        Issuer: C=KR, ST=KyungGi-Do, L=Suwon-Si, O=Samsung Elec., CN=CA
        Validity
            Not Before: Mar 16 05:38:34 2009 GMT
            Not After : Mar 16 05:38:34 2010 GMT
        Subject: C=KR, ST=KyungGi-Do, O=Samsung Elec., CN=First certificate to test OCSP
        Subject Public Key Info:
            Public Key Algorithm: rsaEncryption
            RSA Public Key: (1024 bit)
                Modulus (1024 bit):
                    00:c0:a9:51:63:19:e2:cc:f3:9d:19:d8:75:90:ab:
                    13:40:a3:3f:9d:dc:ef:48:42:0d:00:36:db:ea:68:
                    fd:b9:15:34:a9:af:0f:52:2b:57:2e:03:74:13:41:
                    b4:59:69:7e:f6:e1:54:42:8d:c3:f4:85:2b:ff:07:
                    97:a4:2f:5b:e4:13:be:72:ef:65:e7:59:be:ed:14:
                    71:82:cc:09:03:50:99:66:08:34:1a:41:45:e6:e3:
                    37:98:32:6a:15:d4:32:63:f7:26:6c:5a:ed:45:bd:
                    bb:aa:be:33:4b:9c:cb:b2:03:13:e3:2d:6f:61:57:
                    2a:e8:e8:44:0f:59:ea:e7:bf
                Exponent: 65537 (0x10001)
        X509v3 extensions:
            X509v3 Basic Constraints: 
                CA:FALSE
            Netscape Comment: 
                OpenSSL Generated Certificate
            X509v3 Subject Key Identifier: 
                6C:00:26:BD:98:D4:60:DD:06:EA:CA:73:09:35:6A:7E:1F:92:D9:59
            X509v3 Authority Key Identifier: 
                DirName:/C=KR/ST=KyungGi-Do/L=Suwon-Si/O=Samsung Elec./CN=CA
                serial:F2:5B:40:5B:C2:B7:D0:64

    Signature Algorithm: sha1WithRSAEncryption
        5e:a6:39:dd:09:b5:6e:ef:1c:05:01:1b:91:7b:cc:26:66:0b:
        53:f0:69:1b:ae:7e:10:42:ef:38:c7:ce:09:0f:17:c9:28:df:
        7d:ab:e2:b6:ab:8d:56:17:38:db:e7:b0:2a:52:e0:ec:16:6a:
        cf:db:8b:31:4f:bb:88:89:2e:24:1c:db:a3:b1:c9:fb:d5:9b:
        e2:58:1d:6d:ca:cc:14:79:cc:e0:b1:27:8f:2a:a2:60:90:dc:
        7e:bf:52:65:1d:81:14:18:65:d4:f4:af:43:00:bc:88:50:4b:
        ef:14:1a:5f:d2:7e:64:0e:fd:e0:26:cb:09:f8:b7:04:49:3e:
        6f:56:88:fa:0d:9e:23:90:06:98:ff:75:06:29:09:9b:df:21:
        69:e9:fa:53:a4:c0:9a:06:a7:e2:50:03:e8:13:32:db:a0:62:
        5f:a6:0e:3b:7f:0a:d8:f7:62:56:2e:ca:4b:f7:cb:59:00:d8:
        15:32:57:fc:67:24:8e:38:c1:7f:3a:a6:ca:ac:29:5b:b6:e6:
        e5:2b:5a:f4:52:16:e3:5b:00:f1:46:c9:29:9b:75:e3:e3:28:
        69:fa:cb:52:69:5c:96:1b:2d:a2:ee:26:e3:df:10:fe:67:31:
        7f:bf:3a:7c:81:8c:87:1c:7c:ba:11:96:21:23:02:f9:ab:d8:
        a7:33:ca:b2:47:12:07:c8:c7:a1:67:2a:1f:81:0d:11:f6:12:
        c2:5e:b3:82:77:fb:d6:6e:a9:e5:0e:b3:5c:49:da:c5:b6:0a:
        3b:55:80:8a:b5:0d:ce:94:64:3f:68:f4:e9:4a:00:5b:1b:19:
        a2:29:bc:2f:a4:7c:23:ee:30:c4:48:7e:8b:c5:65:f4:1b:cc:
        4c:5e:dc:fb:38:ed:2d:8e:2b:d8:e4:65:d4:bd:9f:9e:6f:08:
        d0:35:24:86:72:f8:0d:ec:e0:15:49:ed:2a:67:43:13:88:f8:
        fa:1f:03:e1:cb:14:e4:3c:5d:f9:78:b1:1c:a6:20:05:22:b1:
        dc:e2:3d:d4:1c:62:a6:32:61:03:ce:2a:3c:bc:08:57:65:de:
        ec:cf:26:ef:fd:1d:b8:91:f1:a7:e5:d9:2c:94:70:cb:e4:9c:
        c6:78:b6:f3:ff:e4:9b:89:aa:fa:30:1d:62:0a:a7:ba:59:57:
        7b:40:f4:bb:47:1a:80:a7:f3:f4:da:ea:2f:e5:96:0b:7f:39:
        f7:66:0c:bb:c3:33:c9:2d:9d:36:eb:29:6a:31:1b:b9:f6:31:
        3c:b7:fc:18:29:0f:67:a4:ca:6c:db:56:b2:fe:17:37:4d:35:
        38:c5:e8:62:b0:94:3a:ba:da:f6:4b:6c:81:22:05:90:60:ba:
        0d:0c:d8:d8:e2:c8:33:6a
-----BEGIN CERTIFICATE-----
MIIEhjCCAm6gAwIBAgIBGDANBgkqhkiG9w0BAQUFADBaMQswCQYDVQQGEwJLUjET
MBEGA1UECBMKS3l1bmdHaS1EbzERMA8GA1UEBxMIU3V3b24tU2kxFjAUBgNVBAoT
DVNhbXN1bmcgRWxlYy4xCzAJBgNVBAMTAkNBMB4XDTA5MDMxNjA1MzgzNFoXDTEw
MDMxNjA1MzgzNFowYzELMAkGA1UEBhMCS1IxEzARBgNVBAgTCkt5dW5nR2ktRG8x
FjAUBgNVBAoTDVNhbXN1bmcgRWxlYy4xJzAlBgNVBAMTHkZpcnN0IGNlcnRpZmlj
YXRlIHRvIHRlc3QgT0NTUDCBnzANBgkqhkiG9w0BAQEFAAOBjQAwgYkCgYEAwKlR
YxnizPOdGdh1kKsTQKM/ndzvSEINADbb6mj9uRU0qa8PUitXLgN0E0G0WWl+9uFU
Qo3D9IUr/weXpC9b5BO+cu9l51m+7RRxgswJA1CZZgg0GkFF5uM3mDJqFdQyY/cm
bFrtRb27qr4zS5zLsgMT4y1vYVcq6OhED1nq578CAwEAAaOB0TCBzjAJBgNVHRME
AjAAMCwGCWCGSAGG+EIBDQQfFh1PcGVuU1NMIEdlbmVyYXRlZCBDZXJ0aWZpY2F0
ZTAdBgNVHQ4EFgQUbAAmvZjUYN0G6spzCTVqfh+S2VkwdAYDVR0jBG0wa6FepFww
WjELMAkGA1UEBhMCS1IxEzARBgNVBAgTCkt5dW5nR2ktRG8xETAPBgNVBAcTCFN1
d29uLVNpMRYwFAYDVQQKEw1TYW1zdW5nIEVsZWMuMQswCQYDVQQDEwJDQYIJAPJb
QFvCt9BkMA0GCSqGSIb3DQEBBQUAA4ICAQBepjndCbVu7xwFARuRe8wmZgtT8Gkb
rn4QQu84x84JDxfJKN99q+K2q41WFzjb57AqUuDsFmrP24sxT7uIiS4kHNujscn7
1ZviWB1tyswUeczgsSePKqJgkNx+v1JlHYEUGGXU9K9DALyIUEvvFBpf0n5kDv3g
JssJ+LcEST5vVoj6DZ4jkAaY/3UGKQmb3yFp6fpTpMCaBqfiUAPoEzLboGJfpg47
fwrY92JWLspL98tZANgVMlf8ZySOOMF/OqbKrClbtublK1r0UhbjWwDxRskpm3Xj
4yhp+stSaVyWGy2i7ibj3xD+ZzF/vzp8gYyHHHy6EZYhIwL5q9inM8qyRxIHyMeh
ZyofgQ0R9hLCXrOCd/vWbqnlDrNcSdrFtgo7VYCKtQ3OlGQ/aPTpSgBbGxmiKbwv
pHwj7jDESH6LxWX0G8xMXtz7OO0tjivY5GXUvZ+ebwjQNSSGcvgN7OAVSe0qZ0MT
iPj6HwPhyxTkPF35eLEcpiAFIrHc4j3UHGKmMmEDzio8vAhXZd7szybv/R24kfGn
5dkslHDL5JzGeLbz/+Sbiar6MB1iCqe6WVd7QPS7RxqAp/P02uov5ZYLfzn3Zgy7
wzPJLZ026ylqMRu59jE8t/wYKQ9npMps21ay/hc3TTU4xehisJQ6utr2S2yBIgWQ
YLoNDNjY4sgzag==
-----END CERTIFICATE-----
