Certificate:
    Data:
        Version: 3 (0x2)
        Serial Number: 25 (0x19)
        Signature Algorithm: sha1WithRSAEncryption
        Issuer: C=KR, ST=KyungGi-Do, L=Suwon-Si, O=Samsung Elec., CN=CA
        Validity
            Not Before: Mar 16 06:18:33 2009 GMT
            Not After : Mar 16 06:18:33 2010 GMT
        Subject: C=KR, ST=KyungGi-Do, O=Samsung Elec., CN=Second Responder Certificate
        Subject Public Key Info:
            Public Key Algorithm: rsaEncryption
            RSA Public Key: (1024 bit)
                Modulus (1024 bit):
                    00:aa:01:31:49:34:0e:6c:b5:25:a0:da:35:71:cf:
                    9d:a7:c4:ad:27:31:ee:c2:46:fe:03:8f:4f:ed:f7:
                    75:d5:b9:01:c6:a9:8f:8d:17:ca:8c:82:82:63:ed:
                    08:d4:05:9e:31:3c:c9:66:59:41:72:63:8e:01:3e:
                    a2:39:d1:9c:51:9c:c5:9a:ad:72:0d:e6:2b:19:ba:
                    45:a6:18:f6:e2:79:72:4b:5e:79:74:38:b5:86:9c:
                    57:bb:2c:e8:f5:57:9b:32:34:86:2a:2f:40:2f:5d:
                    dd:9c:f5:63:d4:2e:ad:b1:d3:25:22:7c:86:89:84:
                    c9:26:70:3c:c8:11:64:ed:47
                Exponent: 65537 (0x10001)
        X509v3 extensions:
            X509v3 Extended Key Usage: 
                OCSP Signing
            OCSP No Check: 

    Signature Algorithm: sha1WithRSAEncryption
        23:9f:5b:21:e4:9f:c8:2f:37:b9:e4:84:fa:72:b5:16:b1:59:
        1d:5a:76:1a:be:ce:e2:08:d1:0e:0e:a1:ed:0a:5f:71:68:4e:
        7e:34:f2:7f:3c:2d:5a:d2:a3:2d:b1:91:a6:46:c4:13:ac:5f:
        2f:35:23:f2:d9:19:16:74:ee:1e:18:b8:43:7c:d0:7a:33:96:
        0b:ae:12:be:91:68:1b:98:7f:b3:5e:a2:c1:d8:64:e9:b6:24:
        3c:ef:f3:b7:0a:66:f9:8b:9b:9d:30:10:f5:95:97:83:41:6e:
        22:f7:1c:19:d6:da:6a:92:e1:28:79:f7:7d:60:12:f8:fe:e1:
        79:f7:8b:b5:04:a3:9d:b5:cb:a7:e6:b2:50:a4:48:ee:e6:d5:
        6e:ea:b6:3a:ca:c8:11:3a:4d:c1:20:e5:4b:d2:59:f3:af:40:
        a9:4f:aa:81:1a:2d:4b:c2:99:43:fa:11:05:85:11:cf:ec:9b:
        b3:96:4e:62:8e:3e:3c:64:82:df:50:ab:6a:31:e6:66:35:c0:
        c5:dd:c2:a3:ba:f1:2b:66:7f:19:ba:3e:05:e8:e4:69:48:33:
        9a:89:39:2c:dc:b1:98:02:b5:18:8d:11:54:a9:40:27:2b:38:
        42:a4:fc:ea:46:80:0a:07:c7:a6:af:0a:2a:47:6d:bb:44:e8:
        3e:b7:27:ba:7b:1f:3a:00:c5:7f:de:96:88:dd:6b:bc:65:19:
        8f:39:96:53:13:78:4d:59:d8:76:5b:17:eb:57:71:2d:fb:2a:
        b5:c9:d3:ea:af:9b:7c:39:88:82:c5:13:8a:d8:d5:4c:f5:90:
        25:dd:11:ef:f4:d2:5b:4f:e7:d8:d7:ee:c6:7b:2f:59:6d:55:
        54:3f:6e:ac:16:f4:3d:8a:b3:76:65:f6:13:6c:e8:6d:68:bf:
        2b:79:66:ed:9a:02:e7:4e:3b:65:cd:de:38:84:bc:7b:56:a2:
        e6:bb:88:f1:54:71:eb:4d:04:e7:13:80:44:73:53:66:90:ef:
        c7:c4:cf:e6:87:91:2c:cf:23:06:95:16:08:90:6a:9d:df:06:
        51:89:39:f0:61:5c:b8:79:7d:c4:ad:c4:4c:26:30:3d:13:bc:
        ac:4f:bb:69:42:e1:28:89:1d:ac:1e:a7:81:86:4e:fd:4d:ba:
        06:a4:9b:33:06:e0:39:76:52:52:12:eb:c4:be:f5:e9:c9:ff:
        73:df:f2:6c:73:27:64:60:5d:1b:5f:9c:07:8e:89:10:a3:27:
        15:0e:7b:08:1e:a2:57:8c:f2:a5:e6:4c:86:4a:03:7a:45:a1:
        ee:40:71:15:17:55:a3:7d:24:33:b3:57:46:11:07:c6:19:a0:
        50:aa:3a:97:7a:41:36:dc
-----BEGIN CERTIFICATE-----
MIID2jCCAcKgAwIBAgIBGTANBgkqhkiG9w0BAQUFADBaMQswCQYDVQQGEwJLUjET
MBEGA1UECBMKS3l1bmdHaS1EbzERMA8GA1UEBxMIU3V3b24tU2kxFjAUBgNVBAoT
DVNhbXN1bmcgRWxlYy4xCzAJBgNVBAMTAkNBMB4XDTA5MDMxNjA2MTgzM1oXDTEw
MDMxNjA2MTgzM1owYTELMAkGA1UEBhMCS1IxEzARBgNVBAgTCkt5dW5nR2ktRG8x
FjAUBgNVBAoTDVNhbXN1bmcgRWxlYy4xJTAjBgNVBAMTHFNlY29uZCBSZXNwb25k
ZXIgQ2VydGlmaWNhdGUwgZ8wDQYJKoZIhvcNAQEBBQADgY0AMIGJAoGBAKoBMUk0
Dmy1JaDaNXHPnafErScx7sJG/gOPT+33ddW5Acapj40XyoyCgmPtCNQFnjE8yWZZ
QXJjjgE+ojnRnFGcxZqtcg3mKxm6RaYY9uJ5ckteeXQ4tYacV7ss6PVXmzI0hiov
QC9d3Zz1Y9QurbHTJSJ8homEySZwPMgRZO1HAgMBAAGjKDAmMBMGA1UdJQQMMAoG
CCsGAQUFBwMJMA8GCSsGAQUFBzABBQQCBQAwDQYJKoZIhvcNAQEFBQADggIBACOf
WyHkn8gvN7nkhPpytRaxWR1adhq+zuII0Q4Ooe0KX3FoTn408n88LVrSoy2xkaZG
xBOsXy81I/LZGRZ07h4YuEN80HozlguuEr6RaBuYf7NeosHYZOm2JDzv87cKZvmL
m50wEPWVl4NBbiL3HBnW2mqS4Sh5931gEvj+4Xn3i7UEo521y6fmslCkSO7m1W7q
tjrKyBE6TcEg5UvSWfOvQKlPqoEaLUvCmUP6EQWFEc/sm7OWTmKOPjxkgt9Qq2ox
5mY1wMXdwqO68Stmfxm6PgXo5GlIM5qJOSzcsZgCtRiNEVSpQCcrOEKk/OpGgAoH
x6avCipHbbtE6D63J7p7HzoAxX/elojda7xlGY85llMTeE1Z2HZbF+tXcS37KrXJ
0+qvm3w5iILFE4rY1Uz1kCXdEe/00ltP59jX7sZ7L1ltVVQ/bqwW9D2Ks3Zl9hNs
6G1ovyt5Zu2aAudOO2XN3jiEvHtWoua7iPFUcetNBOcTgERzU2aQ78fEz+aHkSzP
IwaVFgiQap3fBlGJOfBhXLh5fcStxEwmMD0TvKxPu2lC4SiJHawep4GGTv1Nugak
mzMG4Dl2UlIS68S+9enJ/3Pf8mxzJ2RgXRtfnAeOiRCjJxUOewgeoleM8qXmTIZK
A3pFoe5AcRUXVaN9JDOzV0YRB8YZoFCqOpd6QTbc
-----END CERTIFICATE-----
