Certificate:
    Data:
        Version: 3 (0x2)
        Serial Number: 26 (0x1a)
        Signature Algorithm: sha1WithRSAEncryption
        Issuer: C=KR, ST=KyungGi-Do, L=Suwon-Si, O=Samsung Elec., CN=CA
        Validity
            Not Before: Mar 16 11:42:26 2009 GMT
            Not After : Mar 16 11:42:26 2010 GMT
        Subject: C=KR, ST=KyungGi-Do, O=Samsung Elec., CN=OCSP Responder
        Subject Public Key Info:
            Public Key Algorithm: rsaEncryption
            RSA Public Key: (1024 bit)
                Modulus (1024 bit):
                    00:b9:0e:80:20:fc:74:49:08:cb:83:87:76:e4:42:
                    03:42:6e:56:1b:ae:73:43:9b:a6:cf:5d:33:1d:37:
                    cf:b5:22:bc:79:5e:6a:69:02:3e:e2:08:c5:f5:be:
                    ee:ef:df:4f:85:41:a2:5f:d3:76:39:3f:61:56:14:
                    1f:c1:cc:ec:45:e3:b2:e2:b0:e8:20:9f:a9:e7:8a:
                    b8:ed:3f:e4:6f:86:d8:e5:d5:3b:fe:47:e8:8f:51:
                    ee:dd:b6:7f:36:6b:c7:75:f7:78:04:df:ac:51:b3:
                    25:65:04:ab:0d:ce:db:5e:3a:db:6a:8f:da:69:46:
                    c7:92:f2:b3:ba:6c:90:3d:71
                Exponent: 65537 (0x10001)
        X509v3 extensions:
            X509v3 Extended Key Usage: 
                OCSP No Check
    Signature Algorithm: sha1WithRSAEncryption
        a9:46:f1:69:d0:17:5c:84:65:ff:4e:17:ba:5a:3a:2a:f5:75:
        ec:c2:2f:50:1a:fc:ce:7e:b0:9f:16:bd:51:fd:27:51:1a:8f:
        8c:d9:b1:c3:27:e9:b4:77:17:2d:d8:fc:e9:fe:e0:57:35:08:
        8f:f2:50:18:9b:e9:14:90:c2:e2:94:1b:19:18:9d:df:c1:20:
        9f:fd:4c:31:a1:b6:68:41:b6:93:66:04:74:03:d4:34:a2:cb:
        bd:88:3a:36:9c:c0:a0:79:52:33:3d:c5:9f:fb:3e:32:24:cb:
        68:aa:78:d2:24:a3:44:39:55:28:3d:20:9a:c0:e9:98:cf:44:
        40:74:4c:83:83:8d:1d:2a:ce:f8:1d:b4:3c:f1:ca:60:5c:58:
        4a:7c:a9:6d:96:1c:96:16:82:7d:0c:14:26:6d:b6:e4:2f:05:
        4c:6f:0a:ed:59:aa:43:f8:e7:f5:a2:a5:01:c0:32:87:32:73:
        fe:e4:b2:c0:ee:07:cf:f3:07:e4:e5:16:c2:07:91:7c:01:8c:
        5d:89:38:40:c6:43:80:ac:fb:cc:27:5a:de:9b:c7:70:c6:5b:
        2e:c8:c7:f9:08:2f:42:7e:ee:44:6e:50:29:5b:19:2f:16:fb:
        0d:16:f9:43:f3:82:c2:c0:ed:2d:a2:51:f2:1c:07:61:1b:2e:
        c4:be:f4:7d:20:83:a9:0d:ff:bb:ec:86:c5:c5:5e:57:66:70:
        06:f1:0e:89:ba:a7:6b:39:dd:46:46:dc:a6:ec:fe:c8:44:4e:
        bd:1d:d5:9b:2b:a2:df:04:9d:40:35:ce:35:3b:d1:b7:91:5c:
        e6:5f:83:23:a2:9e:d5:be:46:9f:6a:43:4c:36:86:4c:a9:a5:
        ce:05:e1:c2:65:9b:70:cd:67:63:c7:a5:1b:01:0d:3e:c3:cd:
        91:3e:65:33:72:2b:38:14:db:18:bb:f9:1a:3d:80:92:fb:66:
        86:06:29:0b:48:ef:91:35:e6:00:8f:81:22:3f:3a:36:af:9c:
        7f:9e:b1:f5:40:ab:43:8b:ff:f2:a2:0a:8d:7e:23:e3:97:3a:
        72:3d:70:fb:25:61:e0:a6:26:b3:d8:6e:62:77:ab:be:b8:16:
        88:2e:b5:0c:9a:44:e9:7f:01:96:d1:29:08:b1:a3:55:00:97:
        ff:9d:2f:68:b8:bb:88:8f:03:47:4c:39:a9:62:fe:e0:fa:eb:
        4c:f2:f6:0e:23:43:ca:83:cb:54:84:79:c4:72:9d:1b:02:97:
        ec:4a:50:5f:cd:10:ba:89:fb:4f:2e:df:50:06:be:55:fd:30:
        c9:ca:58:94:a3:d3:e3:42:83:21:79:89:f7:dd:eb:46:f0:9a:
        88:1b:26:d9:a5:de:4b:c7
-----BEGIN CERTIFICATE-----
MIIDvDCCAaSgAwIBAgIBGjANBgkqhkiG9w0BAQUFADBaMQswCQYDVQQGEwJLUjET
MBEGA1UECBMKS3l1bmdHaS1EbzERMA8GA1UEBxMIU3V3b24tU2kxFjAUBgNVBAoT
DVNhbXN1bmcgRWxlYy4xCzAJBgNVBAMTAkNBMB4XDTA5MDMxNjExNDIyNloXDTEw
MDMxNjExNDIyNlowUzELMAkGA1UEBhMCS1IxEzARBgNVBAgTCkt5dW5nR2ktRG8x
FjAUBgNVBAoTDVNhbXN1bmcgRWxlYy4xFzAVBgNVBAMTDk9DU1AgUmVzcG9uZGVy
MIGfMA0GCSqGSIb3DQEBAQUAA4GNADCBiQKBgQC5DoAg/HRJCMuDh3bkQgNCblYb
rnNDm6bPXTMdN8+1Irx5XmppAj7iCMX1vu7v30+FQaJf03Y5P2FWFB/BzOxF47Li
sOggn6nnirjtP+Rvhtjl1Tv+R+iPUe7dtn82a8d193gE36xRsyVlBKsNztteOttq
j9ppRseS8rO6bJA9cQIDAQABoxgwFjAUBgNVHSUEDTALBgkrBgEFBQcwAQUwDQYJ
KoZIhvcNAQEFBQADggIBAKlG8WnQF1yEZf9OF7paOir1dezCL1Aa/M5+sJ8WvVH9
J1Eaj4zZscMn6bR3Fy3Y/On+4Fc1CI/yUBib6RSQwuKUGxkYnd/BIJ/9TDGhtmhB
tpNmBHQD1DSiy72IOjacwKB5UjM9xZ/7PjIky2iqeNIko0Q5VSg9IJrA6ZjPREB0
TIODjR0qzvgdtDzxymBcWEp8qW2WHJYWgn0MFCZttuQvBUxvCu1ZqkP45/WipQHA
Mocyc/7kssDuB8/zB+TlFsIHkXwBjF2JOEDGQ4Cs+8wnWt6bx3DGWy7Ix/kIL0J+
7kRuUClbGS8W+w0W+UPzgsLA7S2iUfIcB2EbLsS+9H0gg6kN/7vshsXFXldmcAbx
Dom6p2s53UZG3Kbs/shETr0d1Zsrot8EnUA1zjU70beRXOZfgyOintW+Rp9qQ0w2
hkyppc4F4cJlm3DNZ2PHpRsBDT7DzZE+ZTNyKzgU2xi7+Ro9gJL7ZoYGKQtI75E1
5gCPgSI/OjavnH+esfVAq0OL//KiCo1+I+OXOnI9cPslYeCmJrPYbmJ3q764Fogu
tQyaROl/AZbRKQixo1UAl/+dL2i4u4iPA0dMOali/uD660zy9g4jQ8qDy1SEecRy
nRsCl+xKUF/NELqJ+08u31AGvlX9MMnKWJSj0+NCgyF5iffd60bwmogbJtml3kvH
-----END CERTIFICATE-----
