Certificate:
    Data:
        Version: 3 (0x2)
        Serial Number: 27 (0x1b)
        Signature Algorithm: sha1WithRSAEncryption
        Issuer: C=KR, ST=KyungGi-Do, L=Suwon-Si, O=Samsung Elec., CN=CA
        Validity
            Not Before: Mar 16 11:56:53 2009 GMT
            Not After : Mar 16 11:56:53 2010 GMT
        Subject: C=KR, ST=KyungGi-Do, O=Samsung Elec., CN=OCSP Responder
        Subject Public Key Info:
            Public Key Algorithm: rsaEncryption
            RSA Public Key: (1024 bit)
                Modulus (1024 bit):
                    00:b9:0e:80:20:fc:74:49:08:cb:83:87:76:e4:42:
                    03:42:6e:56:1b:ae:73:43:9b:a6:cf:5d:33:1d:37:
                    cf:b5:22:bc:79:5e:6a:69:02:3e:e2:08:c5:f5:be:
                    ee:ef:df:4f:85:41:a2:5f:d3:76:39:3f:61:56:14:
                    1f:c1:cc:ec:45:e3:b2:e2:b0:e8:20:9f:a9:e7:8a:
                    b8:ed:3f:e4:6f:86:d8:e5:d5:3b:fe:47:e8:8f:51:
                    ee:dd:b6:7f:36:6b:c7:75:f7:78:04:df:ac:51:b3:
                    25:65:04:ab:0d:ce:db:5e:3a:db:6a:8f:da:69:46:
                    c7:92:f2:b3:ba:6c:90:3d:71
                Exponent: 65537 (0x10001)
        X509v3 extensions:
            OCSP No Check: 

    Signature Algorithm: sha1WithRSAEncryption
        30:ef:e6:6f:c4:15:ce:e0:09:3e:ab:07:cb:30:ca:64:77:a0:
        cb:ca:9e:0e:b5:57:10:16:65:f3:f6:ff:76:c6:30:f1:28:5b:
        0f:9e:57:dd:fc:0a:b2:45:7b:ff:2a:e5:52:5c:39:62:cf:ff:
        20:06:e5:d4:50:d9:20:07:29:65:db:4a:96:b3:62:6e:3c:8e:
        fc:8c:16:2f:b7:e6:82:13:e5:c9:47:ae:79:25:6c:1b:90:01:
        53:3a:d6:65:9d:3f:0d:b4:69:cc:72:e1:e1:5b:f3:bc:80:5d:
        a0:a0:3a:be:99:59:e2:b4:84:eb:53:91:b7:f5:87:0c:e6:81:
        47:b2:be:28:5f:7c:26:df:18:ea:fc:7f:36:bb:3d:a3:9a:2b:
        86:04:32:26:7e:25:12:45:d0:56:6e:a7:d1:43:7d:f2:d4:85:
        d3:a6:4e:9d:82:3b:15:77:5b:b5:77:7d:37:06:1c:84:ed:09:
        bc:21:bb:fd:56:89:ee:f7:7d:8d:8f:ae:ab:37:5a:c0:9e:17:
        43:77:19:b3:2f:26:4b:1d:68:e3:95:0f:f9:09:6a:27:a5:26:
        e0:00:cc:a4:7d:4c:89:a4:d9:54:56:5c:80:10:b2:eb:23:9d:
        53:64:ac:45:7e:85:ff:4b:34:29:56:91:8a:a6:9d:19:9f:0c:
        1a:c3:3a:82:eb:9f:0e:ab:a2:18:0a:d9:cd:20:bb:1a:33:51:
        38:c6:5b:7e:bf:fe:6f:cd:96:b9:b3:22:7e:99:b0:5b:52:e0:
        a6:3b:07:87:28:83:18:12:cb:5e:d1:8e:29:52:e1:16:9e:a1:
        7e:0a:5c:2c:e2:e1:9d:2d:19:ce:c5:f3:f0:a1:99:18:5f:6d:
        ea:07:8e:b5:0e:ab:e3:76:b8:f3:22:77:2b:52:70:4d:d3:9a:
        26:85:81:2c:13:70:d7:5e:da:0a:13:64:74:f4:22:98:33:c6:
        1f:99:6c:6a:55:7a:05:e6:51:7e:9b:ae:27:ff:68:4b:a9:5b:
        71:69:9f:fe:86:3f:3e:5d:47:8f:72:4b:07:2e:9a:29:07:36:
        e3:2c:dd:94:72:f6:9b:04:b4:18:2a:49:c6:b6:1c:7f:e5:81:
        ea:21:13:ca:50:0e:fe:b0:47:04:4d:52:b0:dc:39:50:a5:ac:
        4c:7a:72:c8:a3:c9:d3:f2:07:dc:1b:bc:83:e7:6c:9d:2a:a9:
        c0:0a:5f:ff:d1:fc:d3:8f:fe:8c:b3:58:64:b5:d6:44:6a:7e:
        b5:23:ea:7d:18:a5:f3:e1:7a:d1:56:cf:7d:05:b9:29:fc:28:
        c1:e7:50:37:49:c7:17:69:73:d1:91:ac:d0:a3:ef:c1:99:1d:
        91:f6:55:9b:46:b6:46:4e
-----BEGIN CERTIFICATE-----
MIIDtzCCAZ+gAwIBAgIBGzANBgkqhkiG9w0BAQUFADBaMQswCQYDVQQGEwJLUjET
MBEGA1UECBMKS3l1bmdHaS1EbzERMA8GA1UEBxMIU3V3b24tU2kxFjAUBgNVBAoT
DVNhbXN1bmcgRWxlYy4xCzAJBgNVBAMTAkNBMB4XDTA5MDMxNjExNTY1M1oXDTEw
MDMxNjExNTY1M1owUzELMAkGA1UEBhMCS1IxEzARBgNVBAgTCkt5dW5nR2ktRG8x
FjAUBgNVBAoTDVNhbXN1bmcgRWxlYy4xFzAVBgNVBAMTDk9DU1AgUmVzcG9uZGVy
MIGfMA0GCSqGSIb3DQEBAQUAA4GNADCBiQKBgQC5DoAg/HRJCMuDh3bkQgNCblYb
rnNDm6bPXTMdN8+1Irx5XmppAj7iCMX1vu7v30+FQaJf03Y5P2FWFB/BzOxF47Li
sOggn6nnirjtP+Rvhtjl1Tv+R+iPUe7dtn82a8d193gE36xRsyVlBKsNztteOttq
j9ppRseS8rO6bJA9cQIDAQABoxMwETAPBgkrBgEFBQcwAQUEAgUAMA0GCSqGSIb3
DQEBBQUAA4ICAQAw7+ZvxBXO4Ak+qwfLMMpkd6DLyp4OtVcQFmXz9v92xjDxKFsP
nlfd/AqyRXv/KuVSXDliz/8gBuXUUNkgByll20qWs2JuPI78jBYvt+aCE+XJR655
JWwbkAFTOtZlnT8NtGnMcuHhW/O8gF2goDq+mVnitITrU5G39YcM5oFHsr4oX3wm
3xjq/H82uz2jmiuGBDImfiUSRdBWbqfRQ33y1IXTpk6dgjsVd1u1d303BhyE7Qm8
Ibv9Vonu932Nj66rN1rAnhdDdxmzLyZLHWjjlQ/5CWonpSbgAMykfUyJpNlUVlyA
ELLrI51TZKxFfoX/SzQpVpGKpp0ZnwwawzqC658Oq6IYCtnNILsaM1E4xlt+v/5v
zZa5syJ+mbBbUuCmOweHKIMYEste0Y4pUuEWnqF+Clws4uGdLRnOxfPwoZkYX23q
B461DqvjdrjzIncrUnBN05omhYEsE3DXXtoKE2R09CKYM8YfmWxqVXoF5lF+m64n
/2hLqVtxaZ/+hj8+XUePcksHLpopBzbjLN2UcvabBLQYKknGthx/5YHqIRPKUA7+
sEcETVKw3DlQpaxMenLIo8nT8gfcG7yD52ydKqnACl//0fzTj/6Ms1hktdZEan61
I+p9GKXz4XrRVs99Bbkp/CjB51A3SccXaXPRkazQo+/BmR2R9lWbRrZGTg==
-----END CERTIFICATE-----
