Certificate:
    Data:
        Version: 3 (0x2)
        Serial Number: 28 (0x1c)
        Signature Algorithm: sha1WithRSAEncryption
        Issuer: C=KR, ST=KyungGi-Do, L=Suwon-Si, O=Samsung Elec., CN=CA
        Validity
            Not Before: Mar 16 12:10:50 2009 GMT
            Not After : Mar 16 12:10:50 2010 GMT
        Subject: C=KR, ST=KyungGi-Do, O=Samsung Elec., CN=OCSP Responder
        Subject Public Key Info:
            Public Key Algorithm: rsaEncryption
            RSA Public Key: (1024 bit)
                Modulus (1024 bit):
                    00:b9:0e:80:20:fc:74:49:08:cb:83:87:76:e4:42:
                    03:42:6e:56:1b:ae:73:43:9b:a6:cf:5d:33:1d:37:
                    cf:b5:22:bc:79:5e:6a:69:02:3e:e2:08:c5:f5:be:
                    ee:ef:df:4f:85:41:a2:5f:d3:76:39:3f:61:56:14:
                    1f:c1:cc:ec:45:e3:b2:e2:b0:e8:20:9f:a9:e7:8a:
                    b8:ed:3f:e4:6f:86:d8:e5:d5:3b:fe:47:e8:8f:51:
                    ee:dd:b6:7f:36:6b:c7:75:f7:78:04:df:ac:51:b3:
                    25:65:04:ab:0d:ce:db:5e:3a:db:6a:8f:da:69:46:
                    c7:92:f2:b3:ba:6c:90:3d:71
                Exponent: 65537 (0x10001)
        X509v3 extensions:
            OCSP No Check: 

    Signature Algorithm: sha1WithRSAEncryption
        9e:15:66:51:b4:ba:c2:50:57:2f:fb:35:bd:43:53:67:26:73:
        96:30:ae:28:d3:fb:b6:d1:4c:e4:bb:1a:c6:f3:e4:40:b6:bb:
        a8:85:c8:1f:e8:09:cd:5a:ec:c2:4d:21:7c:24:85:c2:78:1d:
        97:1f:65:41:50:4c:f7:c2:87:0d:5f:1b:0e:30:b1:66:97:9b:
        4d:d3:32:27:e2:a5:50:17:80:55:0b:d7:4e:ae:9d:94:c1:4f:
        c3:98:f4:d7:64:9c:e5:c9:16:e0:2a:11:8e:27:8d:00:d8:5d:
        3d:61:15:8b:0d:16:39:f1:71:a1:d4:0c:28:fe:d8:47:09:d7:
        be:00:95:39:3b:c0:1c:b2:fd:c4:74:e0:97:df:61:4d:90:db:
        7f:bf:85:21:72:91:90:fa:19:67:6e:cf:ef:61:86:0d:6d:60:
        c6:9b:83:5a:44:fb:d6:d2:1f:f1:2b:5e:0f:3d:6c:a3:07:c3:
        e6:99:13:73:53:71:b5:29:97:d9:43:73:f7:f5:47:41:08:92:
        59:22:95:3e:8d:5e:ff:3f:ad:17:2f:b4:2d:da:b8:5e:09:5a:
        23:c7:b4:eb:cb:3b:b8:83:e9:1c:5c:72:df:65:52:36:54:2f:
        73:0c:57:89:32:80:a4:3e:80:5b:d4:cf:84:73:63:62:27:86:
        0a:61:51:63:1a:58:e8:ed:09:5b:a7:99:97:a3:e6:00:ee:46:
        e5:b7:c6:2f:2f:1a:57:8c:8b:e4:ff:19:f1:eb:3d:8a:ef:a6:
        ea:3b:7e:d8:82:d6:cf:ff:fc:56:b9:85:4d:9a:21:a4:05:d3:
        3a:9a:84:b6:cc:2a:d5:7b:08:2b:00:fe:de:aa:55:53:4f:5c:
        d1:a3:61:8e:44:d3:85:22:ab:88:a6:79:dc:8d:b4:39:e7:28:
        5a:30:68:10:bc:94:19:95:5f:6c:58:94:a4:05:da:5e:d9:1e:
        ae:7b:50:cc:33:e8:db:b6:8f:ee:2e:28:da:fe:31:18:c1:a8:
        50:d9:2b:5c:b1:f8:1b:f5:ab:35:28:31:ca:85:3e:2b:14:0f:
        5a:49:94:6e:1b:3e:d7:ee:8b:ee:51:f2:24:7e:a6:d7:fd:b3:
        48:7e:e1:39:d9:e5:fa:4a:72:2c:4e:6f:64:39:48:88:23:3b:
        23:b3:7f:b1:aa:07:76:37:49:e1:81:fa:57:e5:58:d6:b8:bd:
        e1:84:e4:47:7e:02:23:3c:21:3e:51:42:c5:ad:dd:41:1c:e5:
        27:17:c0:2c:cf:11:f0:19:ab:96:92:f3:d8:88:df:11:bc:7f:
        05:aa:14:03:7f:4b:31:2a:8f:1b:00:79:4e:bd:1e:71:24:3f:
        c8:27:5a:e6:a7:8a:87:3e
-----BEGIN CERTIFICATE-----
MIIDtzCCAZ+gAwIBAgIBHDANBgkqhkiG9w0BAQUFADBaMQswCQYDVQQGEwJLUjET
MBEGA1UECBMKS3l1bmdHaS1EbzERMA8GA1UEBxMIU3V3b24tU2kxFjAUBgNVBAoT
DVNhbXN1bmcgRWxlYy4xCzAJBgNVBAMTAkNBMB4XDTA5MDMxNjEyMTA1MFoXDTEw
MDMxNjEyMTA1MFowUzELMAkGA1UEBhMCS1IxEzARBgNVBAgTCkt5dW5nR2ktRG8x
FjAUBgNVBAoTDVNhbXN1bmcgRWxlYy4xFzAVBgNVBAMTDk9DU1AgUmVzcG9uZGVy
MIGfMA0GCSqGSIb3DQEBAQUAA4GNADCBiQKBgQC5DoAg/HRJCMuDh3bkQgNCblYb
rnNDm6bPXTMdN8+1Irx5XmppAj7iCMX1vu7v30+FQaJf03Y5P2FWFB/BzOxF47Li
sOggn6nnirjtP+Rvhtjl1Tv+R+iPUe7dtn82a8d193gE36xRsyVlBKsNztteOttq
j9ppRseS8rO6bJA9cQIDAQABoxMwETAPBgkrBgEFBQcwAQUEAgUAMA0GCSqGSIb3
DQEBBQUAA4ICAQCeFWZRtLrCUFcv+zW9Q1NnJnOWMK4o0/u20UzkuxrG8+RAtruo
hcgf6AnNWuzCTSF8JIXCeB2XH2VBUEz3wocNXxsOMLFml5tN0zIn4qVQF4BVC9dO
rp2UwU/DmPTXZJzlyRbgKhGOJ40A2F09YRWLDRY58XGh1Awo/thHCde+AJU5O8Ac
sv3EdOCX32FNkNt/v4UhcpGQ+hlnbs/vYYYNbWDGm4NaRPvW0h/xK14PPWyjB8Pm
mRNzU3G1KZfZQ3P39UdBCJJZIpU+jV7/P60XL7Qt2rheCVojx7Tryzu4g+kcXHLf
ZVI2VC9zDFeJMoCkPoBb1M+Ec2NiJ4YKYVFjGljo7Qlbp5mXo+YA7kblt8YvLxpX
jIvk/xnx6z2K76bqO37YgtbP//xWuYVNmiGkBdM6moS2zCrVewgrAP7eqlVTT1zR
o2GORNOFIquIpnncjbQ55yhaMGgQvJQZlV9sWJSkBdpe2R6ue1DMM+jbto/uLija
/jEYwahQ2Stcsfgb9as1KDHKhT4rFA9aSZRuGz7X7ovuUfIkfqbX/bNIfuE52eX6
SnIsTm9kOUiIIzsjs3+xqgd2N0nhgfpX5VjWuL3hhORHfgIjPCE+UULFrd1BHOUn
F8AszxHwGauWkvPYiN8RvH8FqhQDf0sxKo8bAHlOvR5xJD/IJ1rmp4qHPg==
-----END CERTIFICATE-----
