Certificate:
    Data:
        Version: 3 (0x2)
        Serial Number: 29 (0x1d)
        Signature Algorithm: sha1WithRSAEncryption
        Issuer: C=KR, ST=KyungGi-Do, L=Suwon-Si, O=Samsung Elec., CN=CA
        Validity
            Not Before: Mar 16 12:12:56 2009 GMT
            Not After : Mar 16 12:12:56 2010 GMT
        Subject: C=KR, ST=KyungGi-Do, O=Samsung Elec., CN=OCSP Responder
        Subject Public Key Info:
            Public Key Algorithm: rsaEncryption
            RSA Public Key: (1024 bit)
                Modulus (1024 bit):
                    00:b9:0e:80:20:fc:74:49:08:cb:83:87:76:e4:42:
                    03:42:6e:56:1b:ae:73:43:9b:a6:cf:5d:33:1d:37:
                    cf:b5:22:bc:79:5e:6a:69:02:3e:e2:08:c5:f5:be:
                    ee:ef:df:4f:85:41:a2:5f:d3:76:39:3f:61:56:14:
                    1f:c1:cc:ec:45:e3:b2:e2:b0:e8:20:9f:a9:e7:8a:
                    b8:ed:3f:e4:6f:86:d8:e5:d5:3b:fe:47:e8:8f:51:
                    ee:dd:b6:7f:36:6b:c7:75:f7:78:04:df:ac:51:b3:
                    25:65:04:ab:0d:ce:db:5e:3a:db:6a:8f:da:69:46:
                    c7:92:f2:b3:ba:6c:90:3d:71
                Exponent: 65537 (0x10001)
        X509v3 extensions:
            OCSP No Check: 

    Signature Algorithm: sha1WithRSAEncryption
        08:72:72:7b:9c:62:fb:4d:ed:66:dc:d9:f2:db:a0:89:0e:ff:
        04:54:3a:16:60:e4:d9:c8:68:44:54:ee:27:a9:8a:45:ff:26:
        7e:05:1e:c9:61:cd:f3:54:25:d8:72:6e:6f:87:a1:65:ad:cd:
        f4:8b:86:8f:5e:20:ab:82:4f:ac:1e:ec:a7:fd:66:2b:33:73:
        64:44:36:8a:a8:3e:fa:9c:48:ce:ec:52:a9:23:51:94:4b:61:
        55:d5:ea:83:95:30:a2:af:ef:69:ac:bc:48:47:bd:5f:18:5a:
        64:71:6c:65:a9:e7:fd:d2:c1:5f:56:68:6c:90:74:f9:a3:35:
        92:7d:aa:d9:d7:64:20:6d:84:d1:53:a8:b8:06:05:83:5f:e2:
        e4:94:81:55:09:df:3d:88:fb:76:f1:ee:59:67:75:41:70:77:
        fe:7c:c2:b6:d3:7a:13:a0:ab:99:62:7a:fc:5e:d2:ea:d0:99:
        91:3a:57:8b:01:99:3a:78:3b:6c:b6:8d:1b:9d:21:69:90:28:
        34:c6:f3:14:81:94:d3:9d:5c:d2:0b:44:78:29:f9:fb:c2:e8:
        30:47:eb:27:ab:8b:b5:d4:28:a3:6d:fa:83:5d:13:76:da:d2:
        da:77:c3:d0:e0:d3:8b:c1:6e:e4:e0:94:b3:6a:4d:60:9b:84:
        24:02:75:ca:89:4b:60:83:51:3a:7a:b1:c7:e7:d4:55:40:fa:
        ac:7e:1b:c4:f4:d9:01:e2:84:e7:16:20:92:68:6f:dd:2f:a5:
        5a:c5:40:24:9f:89:e9:53:43:02:76:ea:a2:be:17:de:c8:da:
        fa:0e:2a:b8:98:25:0f:c9:2e:31:6f:a9:bf:ec:54:09:bf:e0:
        74:af:23:bd:ee:b1:c4:2b:91:8a:dc:c4:14:e5:52:c9:c8:fd:
        ae:c0:87:e1:8e:a9:b5:25:2b:ce:43:fa:3a:2a:02:fb:2f:9a:
        04:7a:39:e1:8f:84:99:4c:61:6a:24:7c:a3:66:bc:93:80:4e:
        14:22:bc:fb:eb:a0:2f:e2:5a:be:01:c5:3d:76:72:ce:d6:be:
        e7:e0:01:27:ca:22:35:1b:81:84:c4:d6:ee:24:8d:f0:be:cd:
        0e:a8:85:29:f2:23:20:23:52:14:4a:c0:8a:ac:9a:d6:14:63:
        01:1f:41:f7:8c:c5:18:4e:39:64:05:f6:da:44:a3:18:1a:6f:
        77:62:40:f2:e5:d6:ab:4d:55:8b:ed:76:f6:73:80:de:1c:b9:
        69:84:11:aa:e2:56:07:e6:0a:a1:41:4b:a5:b4:92:f4:30:48:
        4d:df:e6:a6:52:97:84:8d:7e:04:24:99:d1:93:a4:55:8b:d7:
        c9:82:44:63:74:f3:1f:d5
-----BEGIN CERTIFICATE-----
MIIDtzCCAZ+gAwIBAgIBHTANBgkqhkiG9w0BAQUFADBaMQswCQYDVQQGEwJLUjET
MBEGA1UECBMKS3l1bmdHaS1EbzERMA8GA1UEBxMIU3V3b24tU2kxFjAUBgNVBAoT
DVNhbXN1bmcgRWxlYy4xCzAJBgNVBAMTAkNBMB4XDTA5MDMxNjEyMTI1NloXDTEw
MDMxNjEyMTI1NlowUzELMAkGA1UEBhMCS1IxEzARBgNVBAgTCkt5dW5nR2ktRG8x
FjAUBgNVBAoTDVNhbXN1bmcgRWxlYy4xFzAVBgNVBAMTDk9DU1AgUmVzcG9uZGVy
MIGfMA0GCSqGSIb3DQEBAQUAA4GNADCBiQKBgQC5DoAg/HRJCMuDh3bkQgNCblYb
rnNDm6bPXTMdN8+1Irx5XmppAj7iCMX1vu7v30+FQaJf03Y5P2FWFB/BzOxF47Li
sOggn6nnirjtP+Rvhtjl1Tv+R+iPUe7dtn82a8d193gE36xRsyVlBKsNztteOttq
j9ppRseS8rO6bJA9cQIDAQABoxMwETAPBgkrBgEFBQcwAQUEAgUAMA0GCSqGSIb3
DQEBBQUAA4ICAQAIcnJ7nGL7Te1m3Nny26CJDv8EVDoWYOTZyGhEVO4nqYpF/yZ+
BR7JYc3zVCXYcm5vh6Flrc30i4aPXiCrgk+sHuyn/WYrM3NkRDaKqD76nEjO7FKp
I1GUS2FV1eqDlTCir+9prLxIR71fGFpkcWxlqef90sFfVmhskHT5ozWSfarZ12Qg
bYTRU6i4BgWDX+LklIFVCd89iPt28e5ZZ3VBcHf+fMK203oToKuZYnr8XtLq0JmR
OleLAZk6eDtsto0bnSFpkCg0xvMUgZTTnVzSC0R4Kfn7wugwR+snq4u11CijbfqD
XRN22tLad8PQ4NOLwW7k4JSzak1gm4QkAnXKiUtgg1E6erHH59RVQPqsfhvE9NkB
4oTnFiCSaG/dL6VaxUAkn4npU0MCduqivhfeyNr6Diq4mCUPyS4xb6m/7FQJv+B0
ryO97rHEK5GK3MQU5VLJyP2uwIfhjqm1JSvOQ/o6KgL7L5oEejnhj4SZTGFqJHyj
ZryTgE4UIrz766Av4lq+AcU9dnLO1r7n4AEnyiI1G4GExNbuJI3wvs0OqIUp8iMg
I1IUSsCKrJrWFGMBH0H3jMUYTjlkBfbaRKMYGm93YkDy5darTVWL7Xb2c4DeHLlp
hBGq4lYH5gqhQUultJL0MEhN3+amUpeEjX4EJJnRk6RVi9fJgkRjdPMf1Q==
-----END CERTIFICATE-----
