Certificate:
    Data:
        Version: 3 (0x2)
        Serial Number: 30 (0x1e)
        Signature Algorithm: sha1WithRSAEncryption
        Issuer: C=KR, ST=KyungGi-Do, L=Suwon-Si, O=Samsung Elec., CN=CA
        Validity
            Not Before: Mar 16 12:13:11 2009 GMT
            Not After : Mar 16 12:13:11 2010 GMT
        Subject: C=KR, ST=KyungGi-Do, O=Samsung Elec., CN=OCSP Responder
        Subject Public Key Info:
            Public Key Algorithm: rsaEncryption
            RSA Public Key: (1024 bit)
                Modulus (1024 bit):
                    00:b9:0e:80:20:fc:74:49:08:cb:83:87:76:e4:42:
                    03:42:6e:56:1b:ae:73:43:9b:a6:cf:5d:33:1d:37:
                    cf:b5:22:bc:79:5e:6a:69:02:3e:e2:08:c5:f5:be:
                    ee:ef:df:4f:85:41:a2:5f:d3:76:39:3f:61:56:14:
                    1f:c1:cc:ec:45:e3:b2:e2:b0:e8:20:9f:a9:e7:8a:
                    b8:ed:3f:e4:6f:86:d8:e5:d5:3b:fe:47:e8:8f:51:
                    ee:dd:b6:7f:36:6b:c7:75:f7:78:04:df:ac:51:b3:
                    25:65:04:ab:0d:ce:db:5e:3a:db:6a:8f:da:69:46:
                    c7:92:f2:b3:ba:6c:90:3d:71
                Exponent: 65537 (0x10001)
        X509v3 extensions:
            OCSP No Check: 

            X509v3 Extended Key Usage: 
                OCSP Signing
    Signature Algorithm: sha1WithRSAEncryption
        8f:da:fe:f8:bb:53:ba:a5:4a:ed:09:6e:4e:5e:10:3f:aa:ce:
        b4:49:9e:53:d9:66:ff:3c:1e:d6:b4:7b:b5:ca:74:7e:11:12:
        2e:da:a5:9b:2d:81:40:aa:f6:06:4a:df:43:59:63:cd:31:05:
        8b:20:4b:1d:c0:66:e7:02:c5:6f:b3:a6:5e:ad:73:fc:88:61:
        e7:b4:fe:59:c7:3b:85:4c:06:97:87:5f:c3:80:fc:28:29:b4:
        2d:c6:3b:ea:ac:4d:ce:d8:f3:f7:ca:45:9c:23:33:80:23:da:
        83:39:a7:d6:51:a0:a2:79:56:48:f3:2b:ca:c4:31:56:09:ab:
        2e:c8:50:0a:24:c1:36:3e:11:5d:cd:1b:9b:d7:38:59:70:a1:
        ea:de:50:fa:44:37:33:1a:b3:24:b7:a6:29:3c:21:1e:66:cf:
        23:65:12:90:01:20:1a:b4:be:39:ff:7e:bf:55:17:5f:bd:fc:
        77:67:12:15:c9:9c:42:7f:49:f5:6f:96:15:68:ba:e9:b1:16:
        dc:ac:92:b0:26:55:2e:1f:90:62:1c:da:29:94:1c:17:d3:92:
        6b:1d:83:bc:ac:cb:3f:b9:d1:e4:e2:a4:67:f4:c0:a1:21:ff:
        3f:92:ab:9a:d2:6f:8b:0b:f9:a0:75:b2:da:20:38:08:b6:b9:
        1c:b8:8a:af:c8:67:63:f2:53:fa:9e:0c:8f:3d:fa:5d:07:0d:
        af:96:10:e6:fa:6f:76:c4:7e:ac:82:e7:2c:04:c4:7b:66:be:
        25:69:f9:cb:10:1d:8f:29:6a:f1:0b:50:b3:00:d6:47:75:03:
        b6:34:96:60:f8:32:e2:9b:a0:b2:71:e4:6f:31:4f:d3:64:48:
        d3:01:27:ba:e8:11:76:36:86:7e:74:9d:44:cd:25:bc:7f:90:
        f7:64:a1:10:ae:75:82:f9:5d:b6:65:83:5b:71:19:89:9d:0e:
        70:01:46:bf:86:d2:82:cf:ca:c5:c6:34:54:67:ea:e4:9c:32:
        db:12:ad:d2:8d:78:9b:07:cb:06:f1:f0:3c:0a:56:70:11:9b:
        71:2d:41:1c:b5:81:cf:a1:6f:2e:17:f5:54:99:ea:c0:79:e5:
        d0:0c:df:50:2a:aa:ff:e3:8b:a3:66:2a:9f:f0:84:b6:8f:e6:
        8e:fd:d9:91:e5:8c:8b:5b:d1:77:d7:1d:b1:06:b6:1e:48:32:
        82:d5:28:f2:24:40:2e:71:5c:e1:16:1e:14:2d:77:22:d3:ab:
        84:b6:c0:ad:67:3d:b2:a6:15:f8:00:f9:95:f7:32:05:3b:e7:
        a7:41:62:16:3f:f6:55:f1:c0:9e:6a:c5:00:a1:9c:78:27:58:
        ea:80:17:5f:80:fa:9d:b0
-----BEGIN CERTIFICATE-----
MIIDzDCCAbSgAwIBAgIBHjANBgkqhkiG9w0BAQUFADBaMQswCQYDVQQGEwJLUjET
MBEGA1UECBMKS3l1bmdHaS1EbzERMA8GA1UEBxMIU3V3b24tU2kxFjAUBgNVBAoT
DVNhbXN1bmcgRWxlYy4xCzAJBgNVBAMTAkNBMB4XDTA5MDMxNjEyMTMxMVoXDTEw
MDMxNjEyMTMxMVowUzELMAkGA1UEBhMCS1IxEzARBgNVBAgTCkt5dW5nR2ktRG8x
FjAUBgNVBAoTDVNhbXN1bmcgRWxlYy4xFzAVBgNVBAMTDk9DU1AgUmVzcG9uZGVy
MIGfMA0GCSqGSIb3DQEBAQUAA4GNADCBiQKBgQC5DoAg/HRJCMuDh3bkQgNCblYb
rnNDm6bPXTMdN8+1Irx5XmppAj7iCMX1vu7v30+FQaJf03Y5P2FWFB/BzOxF47Li
sOggn6nnirjtP+Rvhtjl1Tv+R+iPUe7dtn82a8d193gE36xRsyVlBKsNztteOttq
j9ppRseS8rO6bJA9cQIDAQABoygwJjAPBgkrBgEFBQcwAQUEAgUAMBMGA1UdJQQM
MAoGCCsGAQUFBwMJMA0GCSqGSIb3DQEBBQUAA4ICAQCP2v74u1O6pUrtCW5OXhA/
qs60SZ5T2Wb/PB7WtHu1ynR+ERIu2qWbLYFAqvYGSt9DWWPNMQWLIEsdwGbnAsVv
s6ZerXP8iGHntP5ZxzuFTAaXh1/DgPwoKbQtxjvqrE3O2PP3ykWcIzOAI9qDOafW
UaCieVZI8yvKxDFWCasuyFAKJME2PhFdzRub1zhZcKHq3lD6RDczGrMkt6YpPCEe
Zs8jZRKQASAatL45/36/VRdfvfx3ZxIVyZxCf0n1b5YVaLrpsRbcrJKwJlUuH5Bi
HNoplBwX05JrHYO8rMs/udHk4qRn9MChIf8/kqua0m+LC/mgdbLaIDgItrkcuIqv
yGdj8lP6ngyPPfpdBw2vlhDm+m92xH6sgucsBMR7Zr4lafnLEB2PKWrxC1CzANZH
dQO2NJZg+DLim6CyceRvMU/TZEjTASe66BF2NoZ+dJ1EzSW8f5D3ZKEQrnWC+V22
ZYNbcRmJnQ5wAUa/htKCz8rFxjRUZ+rknDLbEq3SjXibB8sG8fA8ClZwEZtxLUEc
tYHPoW8uF/VUmerAeeXQDN9QKqr/44ujZiqf8IS2j+aO/dmR5YyLW9F31x2xBrYe
SDKC1SjyJEAucVzhFh4ULXci06uEtsCtZz2yphX4APmV9zIFO+enQWIWP/ZV8cCe
asUAoZx4J1jqgBdfgPqdsA==
-----END CERTIFICATE-----
