Certificate:
    Data:
        Version: 3 (0x2)
        Serial Number: 31 (0x1f)
        Signature Algorithm: sha1WithRSAEncryption
        Issuer: C=KR, ST=KyungGi-Do, L=Suwon-Si, O=Samsung Elec., CN=CA
        Validity
            Not Before: Mar 16 12:18:09 2009 GMT
            Not After : Mar 16 12:18:09 2010 GMT
        Subject: C=KR, ST=KyungGi-Do, O=Samsung Elec., CN=OCSP Responder
        Subject Public Key Info:
            Public Key Algorithm: rsaEncryption
            RSA Public Key: (1024 bit)
                Modulus (1024 bit):
                    00:b9:0e:80:20:fc:74:49:08:cb:83:87:76:e4:42:
                    03:42:6e:56:1b:ae:73:43:9b:a6:cf:5d:33:1d:37:
                    cf:b5:22:bc:79:5e:6a:69:02:3e:e2:08:c5:f5:be:
                    ee:ef:df:4f:85:41:a2:5f:d3:76:39:3f:61:56:14:
                    1f:c1:cc:ec:45:e3:b2:e2:b0:e8:20:9f:a9:e7:8a:
                    b8:ed:3f:e4:6f:86:d8:e5:d5:3b:fe:47:e8:8f:51:
                    ee:dd:b6:7f:36:6b:c7:75:f7:78:04:df:ac:51:b3:
                    25:65:04:ab:0d:ce:db:5e:3a:db:6a:8f:da:69:46:
                    c7:92:f2:b3:ba:6c:90:3d:71
                Exponent: 65537 (0x10001)
        X509v3 extensions:
            OCSP No Check: 

            X509v3 Extended Key Usage: 
                OCSP Signing
    Signature Algorithm: sha1WithRSAEncryption
        79:52:2d:07:c5:c3:28:24:6e:4e:fa:96:bc:67:29:f8:1c:1d:
        b0:c9:ea:1a:5a:1b:6c:a6:c8:c2:05:3f:3c:2c:8d:23:6c:5e:
        04:09:ae:80:d5:a6:0b:72:6b:58:29:45:4f:38:f6:01:14:0e:
        fd:6a:c3:80:8d:a6:1c:05:e9:9f:a5:a9:93:0a:f3:2a:6b:47:
        dd:b9:77:4f:89:e9:e8:15:ae:46:d1:55:0e:79:d2:63:df:0a:
        28:c6:c3:6b:d9:b8:66:6a:b1:28:15:68:ec:33:2d:51:9e:eb:
        08:12:61:5c:6d:17:b9:6c:db:33:b6:e4:99:4f:7c:3e:3c:31:
        28:04:8a:d9:a8:dd:43:b4:80:4c:3d:8f:43:a8:d4:8b:da:f5:
        04:7d:0c:c3:f7:c3:75:ab:b1:a9:a3:7e:f1:d0:44:46:99:c0:
        7f:00:ce:3d:82:b4:07:4b:37:5f:68:49:99:d9:9d:c9:b0:ab:
        8b:45:2b:cd:b0:19:33:3a:81:8e:25:1e:e8:ad:b7:1c:8b:0a:
        18:96:e2:78:cc:53:ef:fc:b4:90:46:55:7b:d6:3b:8f:cf:e0:
        7f:f9:0e:41:04:a4:06:3e:9c:86:6e:c8:2c:11:de:6a:8b:82:
        a5:49:70:d2:ac:3a:45:4a:c9:fb:1e:a5:4c:0e:1d:88:b5:86:
        ac:08:a6:57:61:6c:1c:7f:63:7a:44:ad:50:16:f8:f9:2f:22:
        4b:ba:ae:22:fc:b9:58:fe:9d:b4:31:a8:7d:f5:86:18:03:01:
        7b:51:c1:57:7f:62:77:1d:e6:98:06:1c:da:7f:cd:f0:e8:12:
        9c:7e:70:c3:bc:bd:db:18:de:57:f3:4c:1a:6a:b6:e1:24:3f:
        2c:2d:3e:ee:7f:01:45:84:09:5f:cf:ff:a6:26:a9:36:8e:13:
        d8:f5:72:85:4a:0e:55:a5:6c:27:ef:91:e4:1c:93:f4:93:75:
        c4:b5:22:16:b3:af:ec:81:72:dd:f2:4c:a4:f5:99:00:f7:e8:
        f1:9e:a1:e3:a1:dd:ea:e3:5e:47:d1:ea:72:cb:6d:b6:60:cc:
        de:3c:f4:cf:7e:c1:3d:bf:c1:34:88:cb:ee:a2:23:2e:72:ca:
        56:f2:ec:9b:16:3b:5e:8e:02:0f:d5:7e:d2:8a:49:26:fb:59:
        3f:6c:15:1c:b3:cf:a0:6e:70:b6:81:31:44:cf:9a:70:1d:86:
        a6:9a:7e:7e:88:85:34:72:9d:da:3e:3f:65:ad:ad:d2:67:2a:
        22:62:4d:c2:9a:dd:f4:23:45:be:e2:e2:26:cb:f4:7b:f4:5f:
        45:d2:6a:71:a9:9c:69:cd:c5:c1:f3:96:44:f5:d2:95:77:bc:
        1c:aa:79:cc:a1:d5:3c:32
-----BEGIN CERTIFICATE-----
MIIDzDCCAbSgAwIBAgIBHzANBgkqhkiG9w0BAQUFADBaMQswCQYDVQQGEwJLUjET
MBEGA1UECBMKS3l1bmdHaS1EbzERMA8GA1UEBxMIU3V3b24tU2kxFjAUBgNVBAoT
DVNhbXN1bmcgRWxlYy4xCzAJBgNVBAMTAkNBMB4XDTA5MDMxNjEyMTgwOVoXDTEw
MDMxNjEyMTgwOVowUzELMAkGA1UEBhMCS1IxEzARBgNVBAgTCkt5dW5nR2ktRG8x
FjAUBgNVBAoTDVNhbXN1bmcgRWxlYy4xFzAVBgNVBAMTDk9DU1AgUmVzcG9uZGVy
MIGfMA0GCSqGSIb3DQEBAQUAA4GNADCBiQKBgQC5DoAg/HRJCMuDh3bkQgNCblYb
rnNDm6bPXTMdN8+1Irx5XmppAj7iCMX1vu7v30+FQaJf03Y5P2FWFB/BzOxF47Li
sOggn6nnirjtP+Rvhtjl1Tv+R+iPUe7dtn82a8d193gE36xRsyVlBKsNztteOttq
j9ppRseS8rO6bJA9cQIDAQABoygwJjAPBgkrBgEFBQcwAQUEAgUAMBMGA1UdJQQM
MAoGCCsGAQUFBwMJMA0GCSqGSIb3DQEBBQUAA4ICAQB5Ui0HxcMoJG5O+pa8Zyn4
HB2wyeoaWhtspsjCBT88LI0jbF4ECa6A1aYLcmtYKUVPOPYBFA79asOAjaYcBemf
pamTCvMqa0fduXdPienoFa5G0VUOedJj3wooxsNr2bhmarEoFWjsMy1RnusIEmFc
bRe5bNsztuSZT3w+PDEoBIrZqN1DtIBMPY9DqNSL2vUEfQzD98N1q7Gpo37x0ERG
mcB/AM49grQHSzdfaEmZ2Z3JsKuLRSvNsBkzOoGOJR7orbcciwoYluJ4zFPv/LSQ
RlV71juPz+B/+Q5BBKQGPpyGbsgsEd5qi4KlSXDSrDpFSsn7HqVMDh2ItYasCKZX
YWwcf2N6RK1QFvj5LyJLuq4i/LlY/p20Mah99YYYAwF7UcFXf2J3HeaYBhzaf83w
6BKcfnDDvL3bGN5X80waarbhJD8sLT7ufwFFhAlfz/+mJqk2jhPY9XKFSg5VpWwn
75HkHJP0k3XEtSIWs6/sgXLd8kyk9ZkA9+jxnqHjod3q415H0epyy222YMzePPTP
fsE9v8E0iMvuoiMucspW8uybFjtejgIP1X7Sikkm+1k/bBUcs8+gbnC2gTFEz5pw
HYammn5+iIU0cp3aPj9lra3SZyoiYk3Cmt30I0W+4uImy/R79F9F0mpxqZxpzcXB
85ZE9dKVd7wcqnnModU8Mg==
-----END CERTIFICATE-----
