Certificate:
    Data:
        Version: 3 (0x2)
        Serial Number: 32 (0x20)
        Signature Algorithm: sha1WithRSAEncryption
        Issuer: C=KR, ST=KyungGi-Do, L=Suwon-Si, O=Samsung Elec., CN=CA
        Validity
            Not Before: Mar 16 12:29:16 2009 GMT
            Not After : Mar 16 12:29:16 2010 GMT
        Subject: C=KR, ST=KyungGi-Do, O=Samsung Elec., CN=OCSP Responder
        Subject Public Key Info:
            Public Key Algorithm: rsaEncryption
            RSA Public Key: (1024 bit)
                Modulus (1024 bit):
                    00:b9:0e:80:20:fc:74:49:08:cb:83:87:76:e4:42:
                    03:42:6e:56:1b:ae:73:43:9b:a6:cf:5d:33:1d:37:
                    cf:b5:22:bc:79:5e:6a:69:02:3e:e2:08:c5:f5:be:
                    ee:ef:df:4f:85:41:a2:5f:d3:76:39:3f:61:56:14:
                    1f:c1:cc:ec:45:e3:b2:e2:b0:e8:20:9f:a9:e7:8a:
                    b8:ed:3f:e4:6f:86:d8:e5:d5:3b:fe:47:e8:8f:51:
                    ee:dd:b6:7f:36:6b:c7:75:f7:78:04:df:ac:51:b3:
                    25:65:04:ab:0d:ce:db:5e:3a:db:6a:8f:da:69:46:
                    c7:92:f2:b3:ba:6c:90:3d:71
                Exponent: 65537 (0x10001)
        X509v3 extensions:
            X509v3 Extended Key Usage: 
                OCSP Signing
            OCSP No Check: 

    Signature Algorithm: sha1WithRSAEncryption
        22:63:3c:cd:27:23:8b:bf:c2:f1:d9:e8:f8:62:0b:58:a6:7d:
        d7:f1:1f:d8:a2:0e:02:1f:51:30:a9:fd:b6:2a:e0:f3:55:f4:
        a6:a4:d5:f2:3b:b1:2d:09:66:67:ab:f3:12:07:4f:98:96:7d:
        7a:95:64:99:df:b0:75:b1:5a:51:76:bc:70:82:80:5f:14:0c:
        d6:f3:4a:0c:26:87:d2:ad:ed:8a:fe:94:73:6b:37:c6:3e:b5:
        70:a4:06:a8:48:af:fc:45:6c:d8:71:ae:9d:a1:05:14:26:bc:
        3c:76:1e:f0:d4:00:08:b3:5d:9e:0b:da:c4:51:c2:3f:da:25:
        e5:ff:9f:20:9a:30:c1:03:cb:62:64:2d:de:20:a0:c4:53:d9:
        a8:b2:36:4d:db:2f:1d:f6:31:48:b1:8a:32:9d:4a:5d:b2:8d:
        e1:57:e7:47:c8:c6:58:e2:91:5f:de:dd:6c:e1:36:57:12:7d:
        54:75:5b:d8:11:15:75:53:70:79:4e:46:ce:5d:b5:4d:62:ac:
        79:14:0a:0b:57:aa:ef:43:aa:5c:7f:97:df:cf:51:7c:08:98:
        db:36:f2:9d:66:7f:98:c2:9e:2b:70:85:f0:9c:41:19:32:c2:
        5c:27:08:7e:b9:d1:f1:fb:a6:05:55:ad:6e:73:04:dd:14:fb:
        d6:e5:17:f6:3b:bc:30:93:e8:0f:66:0f:90:2b:c4:60:f7:2c:
        de:35:e1:33:da:a0:67:54:00:d8:2a:2f:e1:8c:0b:a3:33:94:
        32:cc:94:fe:d6:d8:96:0c:58:92:ee:89:a8:8e:c8:75:e5:a3:
        2a:94:8a:b8:bb:c2:c3:1c:1d:4d:af:c9:4a:5b:6a:83:34:34:
        ed:f8:f4:fc:23:d5:93:85:39:ad:12:d6:86:48:e4:9c:23:b2:
        84:9e:77:8f:3f:17:c2:91:b8:95:a8:69:4d:43:be:a1:13:9c:
        d8:30:cb:e1:ce:91:92:11:eb:b3:e3:83:2c:ab:f1:2b:3e:7d:
        5d:dc:6b:69:64:28:a5:cc:06:8e:39:9f:f6:11:ec:f9:b3:86:
        bb:c6:26:2f:a9:dd:70:39:34:e3:7a:97:4e:f2:cd:fd:8f:29:
        d7:e7:37:15:53:ab:98:3c:51:65:0c:c4:d1:0e:cb:33:17:4f:
        1c:b3:81:e5:90:f0:43:86:74:a3:40:c4:4a:0d:bb:65:0b:c2:
        de:b7:ec:e8:99:e4:92:d1:16:31:0a:2b:6a:d9:e5:8c:13:3f:
        ec:e6:cf:c0:08:6b:92:37:ae:e2:a9:9c:c6:3b:0f:2d:e4:82:
        d6:b5:92:be:db:65:53:95:7f:fe:09:cd:79:bd:23:ac:3b:5c:
        ec:3b:98:90:76:90:c4:c5
-----BEGIN CERTIFICATE-----
MIIDzDCCAbSgAwIBAgIBIDANBgkqhkiG9w0BAQUFADBaMQswCQYDVQQGEwJLUjET
MBEGA1UECBMKS3l1bmdHaS1EbzERMA8GA1UEBxMIU3V3b24tU2kxFjAUBgNVBAoT
DVNhbXN1bmcgRWxlYy4xCzAJBgNVBAMTAkNBMB4XDTA5MDMxNjEyMjkxNloXDTEw
MDMxNjEyMjkxNlowUzELMAkGA1UEBhMCS1IxEzARBgNVBAgTCkt5dW5nR2ktRG8x
FjAUBgNVBAoTDVNhbXN1bmcgRWxlYy4xFzAVBgNVBAMTDk9DU1AgUmVzcG9uZGVy
MIGfMA0GCSqGSIb3DQEBAQUAA4GNADCBiQKBgQC5DoAg/HRJCMuDh3bkQgNCblYb
rnNDm6bPXTMdN8+1Irx5XmppAj7iCMX1vu7v30+FQaJf03Y5P2FWFB/BzOxF47Li
sOggn6nnirjtP+Rvhtjl1Tv+R+iPUe7dtn82a8d193gE36xRsyVlBKsNztteOttq
j9ppRseS8rO6bJA9cQIDAQABoygwJjATBgNVHSUEDDAKBggrBgEFBQcDCTAPBgkr
BgEFBQcwAQUEAgUAMA0GCSqGSIb3DQEBBQUAA4ICAQAiYzzNJyOLv8Lx2ej4YgtY
pn3X8R/Yog4CH1Ewqf22KuDzVfSmpNXyO7EtCWZnq/MSB0+Yln16lWSZ37B1sVpR
drxwgoBfFAzW80oMJofSre2K/pRzazfGPrVwpAaoSK/8RWzYca6doQUUJrw8dh7w
1AAIs12eC9rEUcI/2iXl/58gmjDBA8tiZC3eIKDEU9mosjZN2y8d9jFIsYoynUpd
so3hV+dHyMZY4pFf3t1s4TZXEn1UdVvYERV1U3B5TkbOXbVNYqx5FAoLV6rvQ6pc
f5ffz1F8CJjbNvKdZn+Ywp4rcIXwnEEZMsJcJwh+udHx+6YFVa1ucwTdFPvW5Rf2
O7wwk+gPZg+QK8Rg9yzeNeEz2qBnVADYKi/hjAujM5QyzJT+1tiWDFiS7omojsh1
5aMqlIq4u8LDHB1Nr8lKW2qDNDTt+PT8I9WThTmtEtaGSOScI7KEnnePPxfCkbiV
qGlNQ76hE5zYMMvhzpGSEeuz44Msq/ErPn1d3GtpZCilzAaOOZ/2Eez5s4a7xiYv
qd1wOTTjepdO8s39jynX5zcVU6uYPFFlDMTRDsszF08cs4HlkPBDhnSjQMRKDbtl
C8Let+zomeSS0RYxCitq2eWMEz/s5s/ACGuSN67iqZzGOw8t5ILWtZK+22VTlX/+
Cc15vSOsO1zsO5iQdpDExQ==
-----END CERTIFICATE-----
