Certificate:
    Data:
        Version: 3 (0x2)
        Serial Number: 33 (0x21)
        Signature Algorithm: sha1WithRSAEncryption
        Issuer: C=KR, ST=KyungGi-Do, L=Suwon-Si, O=Samsung Elec., CN=CA
        Validity
            Not Before: Mar 16 12:33:25 2009 GMT
            Not After : Mar 16 12:33:25 2010 GMT
        Subject: C=KR, ST=KyungGi-Do, O=Samsung Elec., CN=OCSP Responder
        Subject Public Key Info:
            Public Key Algorithm: rsaEncryption
            RSA Public Key: (1024 bit)
                Modulus (1024 bit):
                    00:b9:0e:80:20:fc:74:49:08:cb:83:87:76:e4:42:
                    03:42:6e:56:1b:ae:73:43:9b:a6:cf:5d:33:1d:37:
                    cf:b5:22:bc:79:5e:6a:69:02:3e:e2:08:c5:f5:be:
                    ee:ef:df:4f:85:41:a2:5f:d3:76:39:3f:61:56:14:
                    1f:c1:cc:ec:45:e3:b2:e2:b0:e8:20:9f:a9:e7:8a:
                    b8:ed:3f:e4:6f:86:d8:e5:d5:3b:fe:47:e8:8f:51:
                    ee:dd:b6:7f:36:6b:c7:75:f7:78:04:df:ac:51:b3:
                    25:65:04:ab:0d:ce:db:5e:3a:db:6a:8f:da:69:46:
                    c7:92:f2:b3:ba:6c:90:3d:71
                Exponent: 65537 (0x10001)
        X509v3 extensions:
            OCSP No Check: 

    Signature Algorithm: sha1WithRSAEncryption
        82:41:0d:08:56:89:0d:b0:bc:15:6e:8a:aa:b9:85:55:2c:61:
        4f:78:7c:41:3d:d3:06:00:3a:de:69:19:4f:b2:44:bd:fd:ca:
        42:aa:ed:12:76:bb:6e:e7:fa:29:ab:ec:7b:d5:cb:48:8a:e8:
        3b:ef:30:a4:b1:94:73:83:43:21:f9:1f:7c:38:cc:a9:9b:a1:
        7b:ba:af:96:9e:c4:e2:96:39:6f:d5:ec:b2:5a:95:a2:ee:4a:
        b2:c4:45:df:54:12:69:fa:2f:b6:e3:42:8f:da:e9:eb:8b:0a:
        14:fd:c2:da:97:07:fd:31:6f:74:8a:cc:18:43:4c:e6:e3:de:
        91:4b:72:d4:1d:17:51:18:d8:6c:b7:51:e4:ad:e0:f3:45:70:
        98:e7:1a:e5:e6:bc:54:7a:b6:e4:a3:66:0a:e0:7e:2f:71:64:
        f9:b8:f6:b9:eb:ca:e4:a9:14:b2:b2:82:39:19:e4:57:76:68:
        66:92:a3:15:e8:83:cb:d7:2c:fb:5e:e7:c3:50:9d:df:a5:dc:
        c6:f7:a0:93:e6:ab:bb:f8:8e:85:4c:a2:3a:bd:8c:c7:e8:0d:
        13:df:e8:cb:8c:4a:ef:d6:8c:42:e6:e0:9c:45:60:e3:45:ad:
        ad:d9:fb:56:7a:ca:73:2d:87:33:c8:37:b9:f3:9a:a6:c3:c2:
        79:76:29:aa:c7:75:b7:12:fb:14:07:e0:13:48:c1:69:ad:a3:
        bd:9f:94:83:46:aa:b3:44:0a:f2:62:bb:55:9a:80:46:fb:86:
        af:0d:60:39:7a:ee:dc:ac:15:a2:1f:2b:c2:43:0f:cd:d2:c0:
        49:a9:7f:1e:28:ca:69:91:e0:06:1d:b2:ed:71:02:0a:1f:7b:
        2f:19:8b:fe:5d:b3:b8:dd:a0:ad:0d:c6:75:47:ae:15:8e:d1:
        4f:f3:1c:f3:ee:fe:eb:34:c2:ea:9d:7d:6d:33:00:8a:55:e8:
        ef:26:68:a4:91:90:d5:f9:e4:1c:5f:77:14:c8:17:b1:fd:41:
        f2:28:74:ca:1a:e4:be:01:26:cf:3d:3b:46:98:6e:25:ee:ab:
        66:75:3d:a5:cf:06:5a:5f:ff:a9:3a:58:de:3d:2f:22:0a:13:
        5a:94:6a:f2:fd:f0:1a:c2:06:c9:96:f1:3a:59:87:50:83:5c:
        57:c3:e4:36:df:7a:0d:02:c3:20:c2:cb:2c:cc:df:46:6c:51:
        df:04:11:51:11:ae:81:a3:2a:2e:35:a8:77:1b:37:35:37:54:
        ea:3b:c1:46:a7:48:e3:78:40:c3:a2:3a:f7:3e:94:ff:48:4c:
        55:79:ff:84:e5:38:4c:f3:16:82:27:7f:e1:c2:61:96:d3:d3:
        c1:94:92:94:8c:3d:3e:34
-----BEGIN CERTIFICATE-----
MIIDtzCCAZ+gAwIBAgIBITANBgkqhkiG9w0BAQUFADBaMQswCQYDVQQGEwJLUjET
MBEGA1UECBMKS3l1bmdHaS1EbzERMA8GA1UEBxMIU3V3b24tU2kxFjAUBgNVBAoT
DVNhbXN1bmcgRWxlYy4xCzAJBgNVBAMTAkNBMB4XDTA5MDMxNjEyMzMyNVoXDTEw
MDMxNjEyMzMyNVowUzELMAkGA1UEBhMCS1IxEzARBgNVBAgTCkt5dW5nR2ktRG8x
FjAUBgNVBAoTDVNhbXN1bmcgRWxlYy4xFzAVBgNVBAMTDk9DU1AgUmVzcG9uZGVy
MIGfMA0GCSqGSIb3DQEBAQUAA4GNADCBiQKBgQC5DoAg/HRJCMuDh3bkQgNCblYb
rnNDm6bPXTMdN8+1Irx5XmppAj7iCMX1vu7v30+FQaJf03Y5P2FWFB/BzOxF47Li
sOggn6nnirjtP+Rvhtjl1Tv+R+iPUe7dtn82a8d193gE36xRsyVlBKsNztteOttq
j9ppRseS8rO6bJA9cQIDAQABoxMwETAPBgkrBgEFBQcwAQUEAgUAMA0GCSqGSIb3
DQEBBQUAA4ICAQCCQQ0IVokNsLwVboqquYVVLGFPeHxBPdMGADreaRlPskS9/cpC
qu0Sdrtu5/opq+x71ctIiug77zCksZRzg0Mh+R98OMypm6F7uq+WnsTiljlv1eyy
WpWi7kqyxEXfVBJp+i+240KP2unriwoU/cLalwf9MW90iswYQ0zm496RS3LUHRdR
GNhst1HkreDzRXCY5xrl5rxUerbko2YK4H4vcWT5uPa568rkqRSysoI5GeRXdmhm
kqMV6IPL1yz7XufDUJ3fpdzG96CT5qu7+I6FTKI6vYzH6A0T3+jLjErv1oxC5uCc
RWDjRa2t2ftWespzLYczyDe585qmw8J5dimqx3W3EvsUB+ATSMFpraO9n5SDRqqz
RAryYrtVmoBG+4avDWA5eu7crBWiHyvCQw/N0sBJqX8eKMppkeAGHbLtcQIKH3sv
GYv+XbO43aCtDcZ1R64VjtFP8xzz7v7rNMLqnX1tMwCKVejvJmikkZDV+eQcX3cU
yBex/UHyKHTKGuS+ASbPPTtGmG4l7qtmdT2lzwZaX/+pOljePS8iChNalGry/fAa
wgbJlvE6WYdQg1xXw+Q233oNAsMgwssszN9GbFHfBBFREa6BoyouNah3Gzc1N1Tq
O8FGp0jjeEDDojr3PpT/SExVef+E5ThM8xaCJ3/hwmGW09PBlJKUjD0+NA==
-----END CERTIFICATE-----
