Certificate:
    Data:
        Version: 3 (0x2)
        Serial Number: 34 (0x22)
        Signature Algorithm: sha1WithRSAEncryption
        Issuer: C=KR, ST=KyungGi-Do, L=Suwon-Si, O=Samsung Elec., CN=CA
        Validity
            Not Before: Mar 16 12:50:36 2009 GMT
            Not After : Mar 16 12:50:36 2010 GMT
        Subject: C=KR, ST=KyungGi-Do, O=Samsung Elec., CN=OCSP Responder
        Subject Public Key Info:
            Public Key Algorithm: rsaEncryption
            RSA Public Key: (1024 bit)
                Modulus (1024 bit):
                    00:b9:0e:80:20:fc:74:49:08:cb:83:87:76:e4:42:
                    03:42:6e:56:1b:ae:73:43:9b:a6:cf:5d:33:1d:37:
                    cf:b5:22:bc:79:5e:6a:69:02:3e:e2:08:c5:f5:be:
                    ee:ef:df:4f:85:41:a2:5f:d3:76:39:3f:61:56:14:
                    1f:c1:cc:ec:45:e3:b2:e2:b0:e8:20:9f:a9:e7:8a:
                    b8:ed:3f:e4:6f:86:d8:e5:d5:3b:fe:47:e8:8f:51:
                    ee:dd:b6:7f:36:6b:c7:75:f7:78:04:df:ac:51:b3:
                    25:65:04:ab:0d:ce:db:5e:3a:db:6a:8f:da:69:46:
                    c7:92:f2:b3:ba:6c:90:3d:71
                Exponent: 65537 (0x10001)
        X509v3 extensions:
            OCSP No Check: 

            X509v3 Extended Key Usage: 
                OCSP Signing
    Signature Algorithm: sha1WithRSAEncryption
        01:64:cf:9d:45:b8:8f:e5:96:d2:fe:3f:dc:bc:58:cb:db:6b:
        26:ec:33:9b:84:6a:f8:a9:3e:5a:8a:3b:97:63:db:c8:d1:0c:
        3e:c1:8d:1f:6f:16:20:9a:d9:97:78:2f:7a:4f:d1:49:fa:e0:
        0d:fe:aa:20:d4:97:71:ed:44:63:2d:eb:91:86:83:70:0e:44:
        1d:7c:91:3d:31:11:a8:bb:60:7c:65:71:73:1c:b1:5e:d2:f2:
        11:78:be:3a:90:2d:a4:79:a0:b6:53:33:8e:cb:f4:ee:5e:ce:
        4b:41:19:c5:27:13:f5:fa:09:4c:5d:af:52:59:95:4c:2f:2b:
        3b:24:2c:54:8f:72:2f:86:c7:57:a4:3a:f3:f2:bf:29:60:f5:
        f6:31:73:8a:62:2e:83:c5:8c:91:ba:85:ab:e1:b6:5a:fb:50:
        fd:e5:3e:96:f7:dd:9b:1d:91:ac:2d:1b:b7:ca:62:c8:f7:a4:
        17:6d:2d:ab:87:4b:69:9e:0f:cc:6a:e4:40:3b:82:64:c7:0d:
        7b:81:56:20:5d:cd:1b:99:2e:35:31:78:4a:e6:d8:aa:8e:42:
        6c:c5:e5:bf:a0:f1:5a:1e:21:6a:c0:cb:85:f1:90:6c:93:53:
        66:a8:62:1e:a7:77:15:1f:de:09:23:13:5f:b8:12:33:31:c1:
        4b:44:3b:e1:c4:3f:6a:f5:98:72:d1:ab:e7:9f:0e:f1:46:19:
        0b:09:f6:bd:f4:fe:e0:1f:9f:ff:5c:3b:69:42:5e:ec:a5:ab:
        85:11:29:23:24:fc:37:ab:4f:b0:9c:a3:2c:5d:84:4d:b3:d9:
        fc:a0:87:36:15:22:30:b5:de:f8:27:4e:12:41:11:81:3b:8b:
        2d:d8:34:d5:79:0b:fa:47:54:5b:46:2e:2c:6d:f4:e1:7e:78:
        2d:86:ec:17:5e:29:3a:97:af:7e:0e:df:9a:d2:7d:f0:10:0d:
        c0:ac:ce:5c:ae:fe:b4:01:82:cf:5f:f9:be:ba:b2:15:5d:04:
        5a:58:06:92:2a:5f:e3:98:6a:10:da:51:60:30:66:17:cb:ba:
        5b:79:e8:17:63:16:e8:67:40:07:c6:ea:b9:8f:12:d4:31:de:
        95:b8:dd:e6:04:5b:3f:b6:c6:25:7b:23:51:2f:62:c5:5f:f9:
        d5:2e:9b:7f:ba:d9:fc:72:6f:3a:2c:b6:1f:98:87:ea:48:df:
        07:97:90:6d:21:48:6b:6a:92:d5:d0:2e:6b:37:56:3e:2a:74:
        fa:84:02:57:9c:81:eb:e0:2d:3a:e4:2c:94:15:69:75:65:e0:
        d7:b2:d5:a8:94:39:da:21:85:b2:51:bc:c3:b0:da:16:a5:06:
        98:bc:9f:e6:ea:4a:2c:ab
-----BEGIN CERTIFICATE-----
MIIDzDCCAbSgAwIBAgIBIjANBgkqhkiG9w0BAQUFADBaMQswCQYDVQQGEwJLUjET
MBEGA1UECBMKS3l1bmdHaS1EbzERMA8GA1UEBxMIU3V3b24tU2kxFjAUBgNVBAoT
DVNhbXN1bmcgRWxlYy4xCzAJBgNVBAMTAkNBMB4XDTA5MDMxNjEyNTAzNloXDTEw
MDMxNjEyNTAzNlowUzELMAkGA1UEBhMCS1IxEzARBgNVBAgTCkt5dW5nR2ktRG8x
FjAUBgNVBAoTDVNhbXN1bmcgRWxlYy4xFzAVBgNVBAMTDk9DU1AgUmVzcG9uZGVy
MIGfMA0GCSqGSIb3DQEBAQUAA4GNADCBiQKBgQC5DoAg/HRJCMuDh3bkQgNCblYb
rnNDm6bPXTMdN8+1Irx5XmppAj7iCMX1vu7v30+FQaJf03Y5P2FWFB/BzOxF47Li
sOggn6nnirjtP+Rvhtjl1Tv+R+iPUe7dtn82a8d193gE36xRsyVlBKsNztteOttq
j9ppRseS8rO6bJA9cQIDAQABoygwJjAPBgkrBgEFBQcwAQUEAgUAMBMGA1UdJQQM
MAoGCCsGAQUFBwMJMA0GCSqGSIb3DQEBBQUAA4ICAQABZM+dRbiP5ZbS/j/cvFjL
22sm7DObhGr4qT5aijuXY9vI0Qw+wY0fbxYgmtmXeC96T9FJ+uAN/qog1Jdx7URj
LeuRhoNwDkQdfJE9MRGou2B8ZXFzHLFe0vIReL46kC2keaC2UzOOy/TuXs5LQRnF
JxP1+glMXa9SWZVMLys7JCxUj3IvhsdXpDrz8r8pYPX2MXOKYi6DxYyRuoWr4bZa
+1D95T6W992bHZGsLRu3ymLI96QXbS2rh0tpng/MauRAO4Jkxw17gVYgXc0bmS41
MXhK5tiqjkJsxeW/oPFaHiFqwMuF8ZBsk1NmqGIep3cVH94JIxNfuBIzMcFLRDvh
xD9q9Zhy0avnnw7xRhkLCfa99P7gH5//XDtpQl7spauFESkjJPw3q0+wnKMsXYRN
s9n8oIc2FSIwtd74J04SQRGBO4st2DTVeQv6R1RbRi4sbfThfngthuwXXik6l69+
Dt+a0n3wEA3ArM5crv60AYLPX/m+urIVXQRaWAaSKl/jmGoQ2lFgMGYXy7pbeegX
YxboZ0AHxuq5jxLUMd6VuN3mBFs/tsYleyNRL2LFX/nVLpt/utn8cm86LLYfmIfq
SN8Hl5BtIUhrapLV0C5rN1Y+KnT6hAJXnIHr4C065CyUFWl1ZeDXstWolDnaIYWy
UbzDsNoWpQaYvJ/m6kosqw==
-----END CERTIFICATE-----
