Certificate:
    Data:
        Version: 3 (0x2)
        Serial Number: 37 (0x25)
        Signature Algorithm: sha1WithRSAEncryption
        Issuer: C=KR, ST=KyungGi-Do, L=Suwon-Si, O=Samsung Elec., CN=CA
        Validity
            Not Before: Mar 16 12:59:41 2009 GMT
            Not After : Mar 16 12:59:41 2010 GMT
        Subject: C=KR, ST=KyungGi-Do, O=Samsung Elec., CN=OCSP Responder
        Subject Public Key Info:
            Public Key Algorithm: rsaEncryption
            RSA Public Key: (1024 bit)
                Modulus (1024 bit):
                    00:b9:0e:80:20:fc:74:49:08:cb:83:87:76:e4:42:
                    03:42:6e:56:1b:ae:73:43:9b:a6:cf:5d:33:1d:37:
                    cf:b5:22:bc:79:5e:6a:69:02:3e:e2:08:c5:f5:be:
                    ee:ef:df:4f:85:41:a2:5f:d3:76:39:3f:61:56:14:
                    1f:c1:cc:ec:45:e3:b2:e2:b0:e8:20:9f:a9:e7:8a:
                    b8:ed:3f:e4:6f:86:d8:e5:d5:3b:fe:47:e8:8f:51:
                    ee:dd:b6:7f:36:6b:c7:75:f7:78:04:df:ac:51:b3:
                    25:65:04:ab:0d:ce:db:5e:3a:db:6a:8f:da:69:46:
                    c7:92:f2:b3:ba:6c:90:3d:71
                Exponent: 65537 (0x10001)
        X509v3 extensions:
            OCSP No Check: 

    Signature Algorithm: sha1WithRSAEncryption
        26:92:48:59:3d:33:df:db:c5:57:57:5a:6e:1d:b0:33:bc:83:
        c5:27:d8:97:dc:a7:96:24:19:d8:58:8b:7d:9b:e7:80:89:6a:
        e2:7c:fe:68:6e:11:3d:83:40:65:01:f1:44:58:20:9a:3b:14:
        c6:66:ed:1b:e4:86:46:fb:81:6b:b1:9d:0c:4a:0b:5d:90:c6:
        d0:08:0a:3d:b2:45:31:a1:aa:0f:e9:be:f2:5f:03:31:70:10:
        55:c8:6e:d8:df:ca:9b:3e:77:f5:c5:c0:87:e0:8e:f2:16:c2:
        d5:35:a9:e6:c6:e7:15:e7:4d:db:f2:bd:01:8f:23:59:2b:36:
        5e:97:80:ec:02:47:60:a6:9f:a3:57:b8:d4:ef:81:9f:6b:c8:
        58:65:43:8a:47:c1:8d:1c:20:e5:1e:e1:ce:89:72:60:ec:63:
        c2:96:11:0e:be:98:d3:8f:85:b7:33:28:fb:d5:57:4e:96:3f:
        2b:1c:d6:65:e7:ad:82:67:d8:ca:82:be:a7:74:7b:87:02:8b:
        de:70:aa:d3:77:e7:6d:e4:97:02:24:07:ea:03:40:de:16:de:
        94:0c:7e:d9:f3:cc:37:ac:b9:39:ee:ea:b5:4b:ee:21:00:9c:
        0a:54:cf:bd:35:dd:92:71:8b:98:4d:9b:f9:4e:40:b1:d2:bb:
        9c:5c:98:53:dc:7f:13:e5:c6:21:b8:c5:42:81:f0:10:bc:a6:
        0d:b7:53:9b:38:67:82:85:2d:bd:87:20:f6:e0:4c:06:a0:b8:
        30:a6:74:b2:ee:43:31:95:53:02:ad:c0:88:83:d0:70:d1:af:
        b4:97:66:d1:00:c9:c5:d2:a7:d1:be:b1:fb:1b:75:86:a1:ef:
        0d:c2:78:77:ae:d5:aa:e9:2c:66:80:f7:04:7c:b9:f5:cd:32:
        cf:c2:a2:11:9f:34:39:ec:ee:e0:fe:80:c4:34:24:c3:1c:43:
        3b:44:d2:55:44:55:28:ef:38:bd:07:37:ad:fd:92:2e:1b:96:
        0d:0a:08:84:a6:74:4c:c3:99:0b:11:36:4e:04:47:6a:82:b3:
        45:c7:73:7c:9e:9f:a3:46:c2:b5:26:21:21:8d:04:31:79:db:
        b6:71:b0:1b:7f:3c:9b:eb:07:cc:0d:c2:44:20:48:91:1d:b3:
        2a:34:4f:b9:f3:4e:6f:86:46:83:3c:56:ab:87:8f:bf:e6:15:
        60:4d:d3:d9:56:0e:9c:eb:86:ea:df:2d:1c:5e:9b:c7:38:ec:
        c5:db:22:b7:92:55:2b:ba:3e:3f:da:09:5e:82:ab:9a:fe:bb:
        2b:ac:11:f3:b9:d8:8f:aa:35:66:d3:cd:bc:5b:69:11:e6:06:
        31:92:07:a2:3f:86:26:43
-----BEGIN CERTIFICATE-----
MIIDtzCCAZ+gAwIBAgIBJTANBgkqhkiG9w0BAQUFADBaMQswCQYDVQQGEwJLUjET
MBEGA1UECBMKS3l1bmdHaS1EbzERMA8GA1UEBxMIU3V3b24tU2kxFjAUBgNVBAoT
DVNhbXN1bmcgRWxlYy4xCzAJBgNVBAMTAkNBMB4XDTA5MDMxNjEyNTk0MVoXDTEw
MDMxNjEyNTk0MVowUzELMAkGA1UEBhMCS1IxEzARBgNVBAgTCkt5dW5nR2ktRG8x
FjAUBgNVBAoTDVNhbXN1bmcgRWxlYy4xFzAVBgNVBAMTDk9DU1AgUmVzcG9uZGVy
MIGfMA0GCSqGSIb3DQEBAQUAA4GNADCBiQKBgQC5DoAg/HRJCMuDh3bkQgNCblYb
rnNDm6bPXTMdN8+1Irx5XmppAj7iCMX1vu7v30+FQaJf03Y5P2FWFB/BzOxF47Li
sOggn6nnirjtP+Rvhtjl1Tv+R+iPUe7dtn82a8d193gE36xRsyVlBKsNztteOttq
j9ppRseS8rO6bJA9cQIDAQABoxMwETAPBgkrBgEFBQcwAQUEAgUAMA0GCSqGSIb3
DQEBBQUAA4ICAQAmkkhZPTPf28VXV1puHbAzvIPFJ9iX3KeWJBnYWIt9m+eAiWri
fP5obhE9g0BlAfFEWCCaOxTGZu0b5IZG+4FrsZ0MSgtdkMbQCAo9skUxoaoP6b7y
XwMxcBBVyG7Y38qbPnf1xcCH4I7yFsLVNanmxucV503b8r0BjyNZKzZel4DsAkdg
pp+jV7jU74Gfa8hYZUOKR8GNHCDlHuHOiXJg7GPClhEOvpjTj4W3Myj71VdOlj8r
HNZl562CZ9jKgr6ndHuHAovecKrTd+dt5JcCJAfqA0DeFt6UDH7Z88w3rLk57uq1
S+4hAJwKVM+9Nd2ScYuYTZv5TkCx0rucXJhT3H8T5cYhuMVCgfAQvKYNt1ObOGeC
hS29hyD24EwGoLgwpnSy7kMxlVMCrcCIg9Bw0a+0l2bRAMnF0qfRvrH7G3WGoe8N
wnh3rtWq6SxmgPcEfLn1zTLPwqIRnzQ57O7g/oDENCTDHEM7RNJVRFUo7zi9Bzet
/ZIuG5YNCgiEpnRMw5kLETZOBEdqgrNFx3N8np+jRsK1JiEhjQQxedu2cbAbfzyb
6wfMDcJEIEiRHbMqNE+5805vhkaDPFarh4+/5hVgTdPZVg6c64bq3y0cXpvHOOzF
2yK3klUruj4/2glegqua/rsrrBHzudiPqjVm0828W2kR5gYxkgeiP4YmQw==
-----END CERTIFICATE-----
