Certificate:
    Data:
        Version: 3 (0x2)
        Serial Number: 38 (0x26)
        Signature Algorithm: sha1WithRSAEncryption
        Issuer: C=KR, ST=KyungGi-Do, L=Suwon-Si, O=Samsung Elec., CN=CA
        Validity
            Not Before: Mar 16 14:04:29 2009 GMT
            Not After : Mar 16 14:04:29 2010 GMT
        Subject: C=KR, ST=KyungGi-Do, O=Samsung Elec., CN=Responder certificate with nocheck ext. field
        Subject Public Key Info:
            Public Key Algorithm: rsaEncryption
            RSA Public Key: (1024 bit)
                Modulus (1024 bit):
                    00:c3:69:f4:12:34:1b:04:51:33:26:84:9e:5a:fe:
                    2b:d7:d8:eb:6a:14:af:e5:58:68:a5:71:e4:5e:8a:
                    55:dc:69:71:14:3f:16:48:b1:52:ee:22:05:fd:2a:
                    e7:6e:ce:f1:24:49:f0:06:3d:f5:ed:6c:ed:26:11:
                    93:93:4e:08:05:91:26:b9:22:e8:77:8b:6f:50:a5:
                    db:14:28:2c:c2:94:86:d2:64:11:0e:8a:51:eb:54:
                    3b:5a:1f:70:0a:b2:5c:e2:b2:62:99:30:7c:8c:71:
                    f6:08:28:4f:d9:38:38:38:f3:82:cd:3a:ed:57:5c:
                    c9:d2:bc:47:fa:96:24:2e:d5
                Exponent: 65537 (0x10001)
        X509v3 extensions:
            OCSP No Check: 

    Signature Algorithm: sha1WithRSAEncryption
        41:77:99:bc:20:b3:78:98:b9:5c:ce:5b:21:0c:27:40:77:3c:
        98:1e:f0:b6:2e:5f:70:f1:80:b1:bc:7b:fb:02:4d:86:a8:e9:
        0c:fb:d9:ec:f4:f6:bb:33:8b:f4:f4:6d:21:f7:08:5a:aa:5c:
        ab:bf:05:c6:7f:4f:65:b7:c9:85:77:35:67:37:f9:a3:78:d8:
        7c:40:ca:2d:f6:17:f0:14:47:78:82:3b:ed:58:0b:b1:2d:69:
        47:ee:39:35:17:04:94:2a:d6:57:d7:85:4b:76:a7:bc:38:31:
        7f:a2:65:fe:e5:f5:7c:de:61:ee:ef:58:06:a1:3f:c1:49:cf:
        e6:83:94:6a:42:d3:c4:f8:d7:51:2d:7c:1c:1e:3c:43:77:6b:
        c9:64:aa:ca:30:94:ec:05:84:0e:54:6d:1d:95:74:82:88:90:
        45:f9:25:83:23:2c:51:98:2e:91:6d:06:77:19:97:58:88:54:
        5c:99:e3:71:c2:97:93:b5:5d:d2:c7:58:a7:f7:ec:b2:18:b1:
        d5:b7:13:59:9f:d9:cf:5c:b2:48:a9:55:ec:25:2c:67:e2:f4:
        b1:12:7f:18:a7:35:28:c3:fd:29:d2:84:f5:91:4e:57:a4:27:
        42:37:a2:2d:ea:ae:a1:c8:c3:0a:b5:ee:60:b0:c3:6e:df:e3:
        0c:33:65:06:21:89:51:83:7a:24:4a:e8:79:48:1d:a5:d4:35:
        dd:3f:c8:46:9b:77:8f:3e:28:26:a2:08:aa:72:9d:a4:12:05:
        ae:5b:2c:e9:28:3d:6d:87:0c:ed:c1:74:19:c9:c5:67:34:bf:
        6e:cb:9f:3c:2e:12:b2:57:80:b3:bd:97:8d:16:ba:2a:7f:28:
        9d:66:6f:78:c4:a3:26:81:07:68:3f:8c:ca:08:cc:3a:0e:de:
        0d:6d:c6:c8:c9:9e:b0:a0:aa:89:b9:a3:96:a8:31:65:2b:bf:
        fe:01:b9:26:9e:27:31:b6:c9:28:a9:f3:0c:bd:26:c5:b2:8d:
        35:9b:50:6e:e0:38:76:2f:7a:44:a2:7d:54:c5:fa:bf:0b:d8:
        0c:ae:97:ed:64:b9:0d:42:07:87:4b:e7:f2:bb:77:1e:19:61:
        47:3d:7b:bc:a7:9b:b7:d1:d9:2a:de:ec:f8:6d:f2:0b:1e:21:
        2f:8b:9b:6e:67:07:06:df:fb:30:83:4f:67:7d:d2:b0:9a:2c:
        0d:06:d0:9e:08:51:f2:e4:3f:56:ff:ec:32:d6:08:52:3e:00:
        16:b1:8c:8a:8d:01:3f:12:6b:df:53:e8:2d:1d:4c:e5:72:86:
        96:cf:2b:40:d7:2f:d0:e7:9f:ce:19:a1:65:30:cd:1a:82:fa:
        5a:c5:2d:a0:0a:5f:18:2a
-----BEGIN CERTIFICATE-----
MIID1jCCAb6gAwIBAgIBJjANBgkqhkiG9w0BAQUFADBaMQswCQYDVQQGEwJLUjET
MBEGA1UECBMKS3l1bmdHaS1EbzERMA8GA1UEBxMIU3V3b24tU2kxFjAUBgNVBAoT
DVNhbXN1bmcgRWxlYy4xCzAJBgNVBAMTAkNBMB4XDTA5MDMxNjE0MDQyOVoXDTEw
MDMxNjE0MDQyOVowcjELMAkGA1UEBhMCS1IxEzARBgNVBAgTCkt5dW5nR2ktRG8x
FjAUBgNVBAoTDVNhbXN1bmcgRWxlYy4xNjA0BgNVBAMTLVJlc3BvbmRlciBjZXJ0
aWZpY2F0ZSB3aXRoIG5vY2hlY2sgZXh0LiBmaWVsZDCBnzANBgkqhkiG9w0BAQEF
AAOBjQAwgYkCgYEAw2n0EjQbBFEzJoSeWv4r19jrahSv5VhopXHkXopV3GlxFD8W
SLFS7iIF/Srnbs7xJEnwBj317WztJhGTk04IBZEmuSLod4tvUKXbFCgswpSG0mQR
DopR61Q7Wh9wCrJc4rJimTB8jHH2CChP2Tg4OPOCzTrtV1zJ0rxH+pYkLtUCAwEA
AaMTMBEwDwYJKwYBBQUHMAEFBAIFADANBgkqhkiG9w0BAQUFAAOCAgEAQXeZvCCz
eJi5XM5bIQwnQHc8mB7wti5fcPGAsbx7+wJNhqjpDPvZ7PT2uzOL9PRtIfcIWqpc
q78Fxn9PZbfJhXc1Zzf5o3jYfEDKLfYX8BRHeII77VgLsS1pR+45NRcElCrWV9eF
S3anvDgxf6Jl/uX1fN5h7u9YBqE/wUnP5oOUakLTxPjXUS18HB48Q3dryWSqyjCU
7AWEDlRtHZV0goiQRfklgyMsUZgukW0GdxmXWIhUXJnjccKXk7Vd0sdYp/fsshix
1bcTWZ/Zz1yySKlV7CUsZ+L0sRJ/GKc1KMP9KdKE9ZFOV6QnQjeiLequocjDCrXu
YLDDbt/jDDNlBiGJUYN6JEroeUgdpdQ13T/IRpt3jz4oJqIIqnKdpBIFrlss6Sg9
bYcM7cF0GcnFZzS/bsufPC4SsleAs72XjRa6Kn8onWZveMSjJoEHaD+MygjMOg7e
DW3GyMmesKCqibmjlqgxZSu//gG5Jp4nMbbJKKnzDL0mxbKNNZtQbuA4di96RKJ9
VMX6vwvYDK6X7WS5DUIHh0vn8rt3HhlhRz17vKebt9HZKt7s+G3yCx4hL4ubbmcH
Bt/7MINPZ33SsJosDQbQnghR8uQ/Vv/sMtYIUj4AFrGMio0BPxJr31PoLR1M5XKG
ls8rQNcv0OefzhmhZTDNGoL6WsUtoApfGCo=
-----END CERTIFICATE-----
