Certificate:
    Data:
        Version: 3 (0x2)
        Serial Number: 39 (0x27)
        Signature Algorithm: sha1WithRSAEncryption
        Issuer: C=KR, ST=KyungGi-Do, L=Suwon-Si, O=Samsung Elec., CN=CA
        Validity
            Not Before: Mar 16 23:06:11 2009 GMT
            Not After : Mar 14 23:06:11 2019 GMT
        Subject: C=KR, ST=KyungGi-Do, O=Samsung Elec., CN=Responder certificate with nocheck ext. field
        Subject Public Key Info:
            Public Key Algorithm: rsaEncryption
            RSA Public Key: (1024 bit)
                Modulus (1024 bit):
                    00:c3:69:f4:12:34:1b:04:51:33:26:84:9e:5a:fe:
                    2b:d7:d8:eb:6a:14:af:e5:58:68:a5:71:e4:5e:8a:
                    55:dc:69:71:14:3f:16:48:b1:52:ee:22:05:fd:2a:
                    e7:6e:ce:f1:24:49:f0:06:3d:f5:ed:6c:ed:26:11:
                    93:93:4e:08:05:91:26:b9:22:e8:77:8b:6f:50:a5:
                    db:14:28:2c:c2:94:86:d2:64:11:0e:8a:51:eb:54:
                    3b:5a:1f:70:0a:b2:5c:e2:b2:62:99:30:7c:8c:71:
                    f6:08:28:4f:d9:38:38:38:f3:82:cd:3a:ed:57:5c:
                    c9:d2:bc:47:fa:96:24:2e:d5
                Exponent: 65537 (0x10001)
        X509v3 extensions:
            OCSP No Check: 

    Signature Algorithm: sha1WithRSAEncryption
        69:71:40:12:af:e4:be:42:52:ff:7a:a8:bf:e3:41:f2:2b:75:
        0d:22:10:e8:d6:1e:d3:c0:bb:90:7f:76:46:92:a9:63:2b:50:
        74:c8:73:c4:7b:0e:a0:b7:ed:5c:20:06:18:64:1b:7b:82:21:
        a7:82:bc:c0:33:53:8b:5f:68:c7:de:5f:95:31:52:93:5d:0f:
        78:4c:ff:50:2f:e0:57:ba:f5:49:cb:94:ba:34:85:e9:f1:10:
        76:27:66:6d:d6:46:f6:9d:51:2d:04:96:b5:78:f7:c6:1b:25:
        b4:0a:e7:89:f4:9f:a5:33:92:51:00:86:97:0f:47:cc:3a:8d:
        5e:3a:c2:ad:51:48:7e:7a:03:7a:d1:a7:6d:14:8a:64:f9:5a:
        e1:1c:cb:82:e1:42:f3:8c:dc:87:8e:9b:c8:e4:68:3c:26:eb:
        0a:19:c8:1c:71:88:7e:c9:66:f7:fe:1a:ee:3a:52:1b:54:60:
        95:e8:37:e6:0d:b3:8b:bf:02:07:e7:f8:16:64:f9:34:50:8c:
        bd:54:e5:d1:0b:a8:5f:59:79:de:2a:ea:44:92:be:3e:b2:0d:
        cd:fa:df:d3:93:10:c9:ef:40:d3:31:a7:06:e3:39:15:68:5d:
        d7:94:4f:96:69:8e:13:8d:f3:fb:79:eb:33:50:1e:af:fa:c3:
        d8:81:47:1b:89:05:39:62:ea:c4:ef:f7:15:29:e2:43:f2:66:
        93:51:20:12:10:17:c9:c7:f3:7c:e0:fd:59:dc:38:ca:b2:f5:
        fd:fe:5d:f8:9a:83:70:72:b9:e1:6b:a6:60:db:9d:a3:58:3e:
        5e:73:a4:ce:18:12:ba:dc:56:72:f8:b4:d8:4c:e8:d9:9c:5e:
        cf:d1:76:56:7e:2e:33:9d:1a:80:eb:dd:7c:69:c0:9c:d3:5c:
        5c:d3:a2:89:7c:44:87:66:10:6e:f9:90:b6:72:58:90:77:48:
        ea:56:25:52:e3:c6:bd:3c:95:99:ae:fd:2a:f7:b2:1f:87:bc:
        af:93:ba:2d:0f:1a:ff:7e:90:3b:ae:63:96:9e:68:97:32:16:
        ed:b8:ce:7d:48:f2:b9:83:fc:24:dc:34:1a:34:a4:19:80:78:
        ec:b2:6c:a0:e8:15:37:1e:8d:fa:b9:62:a2:25:5d:d3:14:50:
        f6:68:4b:09:b3:12:ac:cc:63:bb:2b:e6:2a:33:ee:c7:1c:c6:
        64:14:47:e2:c3:29:26:ba:f9:e8:2e:34:c1:cc:9e:3b:2d:57:
        cd:f7:fe:fb:d8:13:65:5c:42:a8:71:61:df:d7:ae:16:71:7f:
        fd:fb:66:d6:a2:92:52:e9:cb:65:03:7d:13:8c:bc:d4:5a:1a:
        c0:55:0d:5f:1c:85:a0:1e
-----BEGIN CERTIFICATE-----
MIID1jCCAb6gAwIBAgIBJzANBgkqhkiG9w0BAQUFADBaMQswCQYDVQQGEwJLUjET
MBEGA1UECBMKS3l1bmdHaS1EbzERMA8GA1UEBxMIU3V3b24tU2kxFjAUBgNVBAoT
DVNhbXN1bmcgRWxlYy4xCzAJBgNVBAMTAkNBMB4XDTA5MDMxNjIzMDYxMVoXDTE5
MDMxNDIzMDYxMVowcjELMAkGA1UEBhMCS1IxEzARBgNVBAgTCkt5dW5nR2ktRG8x
FjAUBgNVBAoTDVNhbXN1bmcgRWxlYy4xNjA0BgNVBAMTLVJlc3BvbmRlciBjZXJ0
aWZpY2F0ZSB3aXRoIG5vY2hlY2sgZXh0LiBmaWVsZDCBnzANBgkqhkiG9w0BAQEF
AAOBjQAwgYkCgYEAw2n0EjQbBFEzJoSeWv4r19jrahSv5VhopXHkXopV3GlxFD8W
SLFS7iIF/Srnbs7xJEnwBj317WztJhGTk04IBZEmuSLod4tvUKXbFCgswpSG0mQR
DopR61Q7Wh9wCrJc4rJimTB8jHH2CChP2Tg4OPOCzTrtV1zJ0rxH+pYkLtUCAwEA
AaMTMBEwDwYJKwYBBQUHMAEFBAIFADANBgkqhkiG9w0BAQUFAAOCAgEAaXFAEq/k
vkJS/3qov+NB8it1DSIQ6NYe08C7kH92RpKpYytQdMhzxHsOoLftXCAGGGQbe4Ih
p4K8wDNTi19ox95flTFSk10PeEz/UC/gV7r1ScuUujSF6fEQdidmbdZG9p1RLQSW
tXj3xhsltArnifSfpTOSUQCGlw9HzDqNXjrCrVFIfnoDetGnbRSKZPla4RzLguFC
84zch46byORoPCbrChnIHHGIfslm9/4a7jpSG1Rgleg35g2zi78CB+f4FmT5NFCM
vVTl0QuoX1l53irqRJK+PrINzfrf05MQye9A0zGnBuM5FWhd15RPlmmOE43z+3nr
M1Aer/rD2IFHG4kFOWLqxO/3FSniQ/Jmk1EgEhAXycfzfOD9Wdw4yrL1/f5d+JqD
cHK54WumYNudo1g+XnOkzhgSutxWcvi02Ezo2Zxez9F2Vn4uM50agOvdfGnAnNNc
XNOiiXxEh2YQbvmQtnJYkHdI6lYlUuPGvTyVma79KveyH4e8r5O6LQ8a/36QO65j
lp5olzIW7bjOfUjyuYP8JNw0GjSkGYB47LJsoOgVNx6N+rlioiVd0xRQ9mhLCbMS
rMxjuyvmKjPuxxzGZBRH4sMpJrr56C40wcyeOy1Xzff++9gTZVxCqHFh39euFnF/
/ftm1qKSUunLZQN9E4y81FoawFUNXxyFoB4=
-----END CERTIFICATE-----
