Certificate:
    Data:
        Version: 3 (0x2)
        Serial Number: 41 (0x29)
        Signature Algorithm: sha1WithRSAEncryption
        Issuer: C=KR, ST=KyungGi-Do, L=Suwon-Si, O=Samsung Elec., CN=CA
        Validity
            Not Before: Mar 16 23:32:11 2009 GMT
            Not After : Mar 14 23:32:11 2019 GMT
        Subject: C=KR, ST=KyungGi-Do, O=Samsung Elec., CN=Seventh OCSP Client certificate
        Subject Public Key Info:
            Public Key Algorithm: rsaEncryption
            RSA Public Key: (1024 bit)
                Modulus (1024 bit):
                    00:ab:f9:60:ff:9d:55:0f:31:12:2c:f2:df:64:22:
                    fb:c0:97:1d:e4:13:fb:d7:15:37:5d:b9:2d:97:37:
                    c4:e8:34:cb:00:85:22:4d:8a:85:80:a1:ae:90:5e:
                    71:bf:6d:0d:a3:c3:8d:ce:47:58:60:25:bb:9c:95:
                    0a:0b:cd:23:01:ae:18:be:d5:65:bd:8b:55:bf:ee:
                    59:8a:db:20:bd:f9:f3:ac:53:2e:09:99:fb:27:7d:
                    23:8b:f6:96:d9:41:37:0a:43:16:1f:f9:5d:84:b3:
                    3b:79:45:ff:dd:b2:35:99:c0:db:85:24:22:a8:7e:
                    ff:e0:8b:f2:d8:ca:3e:ae:e5
                Exponent: 65537 (0x10001)
        X509v3 extensions:
            Authority Information Access: 
                OCSP - URI:http://127.0.0.1:86/0008

    Signature Algorithm: sha1WithRSAEncryption
        08:02:c2:09:8a:f6:f1:d7:9e:d3:30:dc:ce:97:fc:84:bd:5b:
        ae:60:39:82:0a:06:38:43:1e:55:de:83:11:d3:12:e0:81:76:
        fd:5c:6e:9e:30:73:6d:8f:b2:32:a6:60:24:24:ee:e3:fd:73:
        10:12:e6:c7:23:6b:1f:4e:b5:52:e3:12:09:ee:dd:19:d2:b4:
        a6:34:e6:14:3c:79:58:95:4b:25:e3:f6:97:d2:cc:20:93:48:
        1f:d5:2f:37:db:15:bf:f4:71:ad:04:bd:95:80:57:a5:49:bb:
        aa:ca:f3:ff:af:62:dd:f9:94:75:38:59:6c:74:ef:ac:1e:19:
        60:6d:4b:be:f7:62:2f:c6:68:b9:c4:fc:8a:fd:9f:b2:4d:44:
        87:12:51:6e:7d:5f:41:2c:ea:e6:9c:3c:bd:cf:dc:aa:14:b2:
        34:16:e0:38:b3:8c:f4:d7:68:1f:6c:cc:3c:da:30:32:8e:58:
        5b:9a:bf:75:7a:38:a3:cf:60:6f:74:cc:a6:c1:55:f6:96:84:
        98:04:db:b1:07:d6:f6:06:11:af:c2:fb:81:a4:77:04:4d:55:
        9d:c4:28:d4:3c:d0:97:a0:f8:d4:18:59:cc:23:3a:b3:c0:82:
        ad:1d:e2:4c:e4:da:24:73:cd:77:ab:db:22:07:94:d1:16:26:
        27:82:e2:d5:82:f9:e1:29:fb:8f:9e:88:a2:1b:5c:8b:31:3c:
        c6:1c:ae:16:31:28:f8:e2:5c:9d:e9:e8:d7:d9:fe:0a:39:3f:
        fa:65:20:53:5e:20:32:4b:b8:a8:4b:a8:b8:e8:f1:3f:0a:80:
        7d:b4:8c:1b:e6:54:d3:02:d6:56:a3:a6:4e:87:9a:51:ed:0d:
        52:9b:e1:66:c8:64:c8:95:55:08:aa:f9:c0:9d:5a:89:03:21:
        6b:29:96:f8:42:64:6a:3f:d5:92:d5:13:00:6c:89:38:ea:01:
        0d:28:3b:a0:12:e1:cf:cf:fd:10:5e:a3:9b:67:0b:3e:a7:17:
        7a:de:76:25:26:54:db:0f:a8:f9:e9:50:f0:1e:9a:0d:ad:d6:
        ad:63:32:be:c0:bb:7a:66:be:c9:d3:f2:1e:48:c3:f5:2b:15:
        4d:39:cc:88:32:65:97:99:01:41:12:07:4e:d7:1d:af:fa:46:
        29:93:02:70:ed:df:89:a3:d5:50:1c:07:ed:df:f8:5c:d6:11:
        c6:1a:32:e6:2b:e7:49:d8:82:16:dd:41:5d:13:9c:a0:00:68:
        82:54:f8:5e:2a:81:3e:fe:0b:bf:6e:de:e2:b4:4f:09:31:74:
        4d:6a:2d:b7:a9:0a:54:f4:a7:1f:63:8a:6e:73:bc:e3:38:9e:
        b8:26:e5:f6:8a:dd:ad:14
-----BEGIN CERTIFICATE-----
MIID7TCCAdWgAwIBAgIBKTANBgkqhkiG9w0BAQUFADBaMQswCQYDVQQGEwJLUjET
MBEGA1UECBMKS3l1bmdHaS1EbzERMA8GA1UEBxMIU3V3b24tU2kxFjAUBgNVBAoT
DVNhbXN1bmcgRWxlYy4xCzAJBgNVBAMTAkNBMB4XDTA5MDMxNjIzMzIxMVoXDTE5
MDMxNDIzMzIxMVowZDELMAkGA1UEBhMCS1IxEzARBgNVBAgTCkt5dW5nR2ktRG8x
FjAUBgNVBAoTDVNhbXN1bmcgRWxlYy4xKDAmBgNVBAMTH1NldmVudGggT0NTUCBD
bGllbnQgY2VydGlmaWNhdGUwgZ8wDQYJKoZIhvcNAQEBBQADgY0AMIGJAoGBAKv5
YP+dVQ8xEizy32Qi+8CXHeQT+9cVN125LZc3xOg0ywCFIk2KhYChrpBecb9tDaPD
jc5HWGAlu5yVCgvNIwGuGL7VZb2LVb/uWYrbIL3586xTLgmZ+yd9I4v2ltlBNwpD
Fh/5XYSzO3lF/92yNZnA24UkIqh+/+CL8tjKPq7lAgMBAAGjODA2MDQGCCsGAQUF
BwEBBCgwJjAkBggrBgEFBQcwAYYYaHR0cDovLzEyNy4wLjAuMTo4Ni8wMDA4MA0G
CSqGSIb3DQEBBQUAA4ICAQAIAsIJivbx157TMNzOl/yEvVuuYDmCCgY4Qx5V3oMR
0xLggXb9XG6eMHNtj7IypmAkJO7j/XMQEubHI2sfTrVS4xIJ7t0Z0rSmNOYUPHlY
lUsl4/aX0swgk0gf1S832xW/9HGtBL2VgFelSbuqyvP/r2Ld+ZR1OFlsdO+sHhlg
bUu+92Ivxmi5xPyK/Z+yTUSHElFufV9BLOrmnDy9z9yqFLI0FuA4s4z012gfbMw8
2jAyjlhbmr91ejijz2BvdMymwVX2loSYBNuxB9b2BhGvwvuBpHcETVWdxCjUPNCX
oPjUGFnMIzqzwIKtHeJM5Nokc813q9siB5TRFiYnguLVgvnhKfuPnoiiG1yLMTzG
HK4WMSj44lyd6ejX2f4KOT/6ZSBTXiAyS7ioS6i46PE/CoB9tIwb5lTTAtZWo6ZO
h5pR7Q1Sm+FmyGTIlVUIqvnAnVqJAyFrKZb4QmRqP9WS1RMAbIk46gENKDugEuHP
z/0QXqObZws+pxd63nYlJlTbD6j56VDwHpoNrdatYzK+wLt6Zr7J0/IeSMP1KxVN
OcyIMmWXmQFBEgdO1x2v+kYpkwJw7d+Jo9VQHAft3/hc1hHGGjLmK+dJ2IIW3UFd
E5ygAGiCVPheKoE+/gu/bt7itE8JMXRNai23qQpU9KcfY4puc7zjOJ64JuX2it2t
FA==
-----END CERTIFICATE-----
