Certificate:
    Data:
        Version: 3 (0x2)
        Serial Number: 42 (0x2a)
        Signature Algorithm: sha256WithRSAEncryption
        Issuer: C=KR, ST=KyungGi-Do, L=Suwon-Si, O=Samsung Elec., CN=CA
        Validity
            Not Before: Jun 20 08:21:47 2009 GMT
            Not After : Jun 18 08:21:47 2019 GMT
        Subject: C=KR, ST=KyungGi-Do, O=Samsung Elec., CN=First Test Certificate
        Subject Public Key Info:
            Public Key Algorithm: rsaEncryption
            RSA Public Key: (1024 bit)
                Modulus (1024 bit):
                    00:cf:0f:cf:a5:08:18:bf:8b:6c:2c:3c:55:fe:02:
                    43:b7:a8:af:45:a3:4a:28:63:d1:da:26:7a:c2:0d:
                    f8:58:a5:73:c5:db:b8:fb:62:47:ea:17:7b:25:6b:
                    d1:8c:e2:74:96:f4:6b:e5:49:3b:b3:e5:6a:63:36:
                    19:f8:3c:d8:4b:9c:14:9d:2b:6a:71:cc:3a:9f:b9:
                    d5:db:60:8e:44:40:d7:12:53:52:e5:71:41:c8:bf:
                    ec:0d:9c:5b:7c:8e:ac:99:47:65:50:e5:f8:95:3e:
                    8a:3c:99:d9:75:47:73:51:f4:fd:36:46:ed:1a:77:
                    10:ce:1d:01:0c:86:6b:23:ff
                Exponent: 65537 (0x10001)
        X509v3 extensions:
            X509v3 Basic Constraints: 
                CA:FALSE
            Netscape Comment: 
                OpenSSL Generated Certificate
            X509v3 Subject Key Identifier: 
                25:0C:EC:1F:D6:1A:A2:95:AF:C1:A3:DA:EF:B1:F3:BE:62:F3:10:6C
            X509v3 Authority Key Identifier: 
                DirName:/C=KR/ST=KyungGi-Do/L=Suwon-Si/O=Samsung Elec./CN=CA
                serial:F2:5B:40:5B:C2:B7:D0:64

    Signature Algorithm: sha256WithRSAEncryption
        b1:3e:50:ff:5f:32:b2:09:6b:52:98:07:5a:78:7f:fe:12:6f:
        87:25:d4:bc:96:45:07:31:e0:ae:52:d1:9e:04:d8:05:84:cf:
        e2:e5:82:01:b5:46:ce:4e:47:d6:ef:87:7c:37:d6:67:99:ab:
        ad:4d:70:eb:98:fe:31:f1:f8:e9:a2:c5:40:4f:a6:c4:79:15:
        64:d3:64:d2:3f:05:b5:08:16:88:46:22:72:86:a1:8e:ef:df:
        67:25:d7:74:bd:01:04:b8:70:00:0d:9d:36:d0:9e:3a:4b:7e:
        0d:3d:9e:3d:ce:fb:47:ee:7d:5b:b9:c1:65:2b:4c:ef:26:89:
        ed:1b:bc:17:4a:63:41:b3:99:e7:c5:4d:d5:31:af:d7:4b:3b:
        37:ce:99:da:8f:53:20:40:14:95:14:09:61:ba:9c:c0:1b:66:
        7c:e7:e3:4c:28:c6:48:e8:6c:02:55:3c:44:18:d1:29:88:7b:
        ff:30:e5:be:ee:8e:da:95:fe:04:c2:c8:a1:ce:81:46:b9:bb:
        b2:3d:ad:af:a9:e3:a8:c1:8f:d8:51:48:d1:c6:e9:c8:c8:94:
        6f:7c:b0:fc:92:04:d0:8f:30:30:f1:a3:d0:f8:dc:aa:52:2c:
        1f:bd:f3:67:ac:97:6e:0d:1a:82:c1:a2:30:9e:d3:95:74:47:
        b5:49:c8:73:7a:c6:73:20:18:7a:98:8f:c1:3e:5f:1a:04:33:
        9b:ff:e0:ab:9e:f8:ca:92:bc:e8:94:b8:ce:87:89:75:e6:49:
        bd:d5:7f:1f:44:b6:48:fc:02:4f:b5:25:f4:ff:53:98:5f:0f:
        95:52:d2:00:2a:41:85:cb:8d:f4:a1:a6:ef:68:ac:b5:fa:a7:
        94:91:cc:64:5c:30:43:01:90:84:eb:8f:66:3b:98:4c:42:43:
        3d:31:47:28:da:49:eb:e9:14:67:c5:81:f6:13:a3:c3:a5:ee:
        c4:28:0e:52:ee:c7:b2:e6:f8:c3:79:63:12:45:c1:06:5b:94:
        48:f1:4c:32:c7:69:9d:6d:b3:0b:c5:98:93:f4:4b:c7:64:35:
        23:22:56:c7:fa:e3:0c:3b:39:cf:b4:ca:cf:d2:10:97:b3:95:
        e4:f7:53:d3:cb:5e:43:82:d4:7c:e5:83:a4:cf:4e:0b:c8:16:
        35:5e:8a:2b:47:8a:6e:2f:98:02:d4:cc:9d:28:a9:95:ff:ab:
        73:df:01:c6:ff:df:7b:33:21:e0:db:81:8d:59:11:f0:f3:92:
        f7:c5:8c:83:2e:22:55:dd:1f:78:5c:f7:a3:fc:de:99:8f:46:
        50:ff:75:db:bb:58:07:fa:01:c1:67:8c:18:c4:3f:2f:b7:41:
        f7:ec:56:e7:1a:4b:e4:78
-----BEGIN CERTIFICATE-----
MIIEfjCCAmagAwIBAgIBKjANBgkqhkiG9w0BAQsFADBaMQswCQYDVQQGEwJLUjET
MBEGA1UECBMKS3l1bmdHaS1EbzERMA8GA1UEBxMIU3V3b24tU2kxFjAUBgNVBAoT
DVNhbXN1bmcgRWxlYy4xCzAJBgNVBAMTAkNBMB4XDTA5MDYyMDA4MjE0N1oXDTE5
MDYxODA4MjE0N1owWzELMAkGA1UEBhMCS1IxEzARBgNVBAgTCkt5dW5nR2ktRG8x
FjAUBgNVBAoTDVNhbXN1bmcgRWxlYy4xHzAdBgNVBAMTFkZpcnN0IFRlc3QgQ2Vy
dGlmaWNhdGUwgZ8wDQYJKoZIhvcNAQEBBQADgY0AMIGJAoGBAM8Pz6UIGL+LbCw8
Vf4CQ7eor0WjSihj0domesIN+Filc8XbuPtiR+oXeyVr0YzidJb0a+VJO7PlamM2
Gfg82EucFJ0ranHMOp+51dtgjkRA1xJTUuVxQci/7A2cW3yOrJlHZVDl+JU+ijyZ
2XVHc1H0/TZG7Rp3EM4dAQyGayP/AgMBAAGjgdEwgc4wCQYDVR0TBAIwADAsBglg
hkgBhvhCAQ0EHxYdT3BlblNTTCBHZW5lcmF0ZWQgQ2VydGlmaWNhdGUwHQYDVR0O
BBYEFCUM7B/WGqKVr8Gj2u+x875i8xBsMHQGA1UdIwRtMGuhXqRcMFoxCzAJBgNV
BAYTAktSMRMwEQYDVQQIEwpLeXVuZ0dpLURvMREwDwYDVQQHEwhTdXdvbi1TaTEW
MBQGA1UEChMNU2Ftc3VuZyBFbGVjLjELMAkGA1UEAxMCQ0GCCQDyW0BbwrfQZDAN
BgkqhkiG9w0BAQsFAAOCAgEAsT5Q/18ysglrUpgHWnh//hJvhyXUvJZFBzHgrlLR
ngTYBYTP4uWCAbVGzk5H1u+HfDfWZ5mrrU1w65j+MfH46aLFQE+mxHkVZNNk0j8F
tQgWiEYicoahju/fZyXXdL0BBLhwAA2dNtCeOkt+DT2ePc77R+59W7nBZStM7yaJ
7Ru8F0pjQbOZ58VN1TGv10s7N86Z2o9TIEAUlRQJYbqcwBtmfOfjTCjGSOhsAlU8
RBjRKYh7/zDlvu6O2pX+BMLIoc6BRrm7sj2tr6njqMGP2FFI0cbpyMiUb3yw/JIE
0I8wMPGj0PjcqlIsH73zZ6yXbg0agsGiMJ7TlXRHtUnIc3rGcyAYepiPwT5fGgQz
m//gq574ypK86JS4zoeJdeZJvdV/H0S2SPwCT7Ul9P9TmF8PlVLSACpBhcuN9KGm
72istfqnlJHMZFwwQwGQhOuPZjuYTEJDPTFHKNpJ6+kUZ8WB9hOjw6XuxCgOUu7H
sub4w3ljEkXBBluUSPFMMsdpnW2zC8WYk/RLx2Q1IyJWx/rjDDs5z7TKz9IQl7OV
5PdT08teQ4LUfOWDpM9OC8gWNV6KK0eKbi+YAtTMnSiplf+rc98Bxv/fezMh4NuB
jVkR8POS98WMgy4iVd0feFz3o/zemY9GUP9127tYB/oBwWeMGMQ/L7dB9+xW5xpL
5Hg=
-----END CERTIFICATE-----
