Certificate:
    Data:
        Version: 3 (0x2)
        Serial Number: 0 (0x0)
        Signature Algorithm: sha1WithRSAEncryption
        Issuer: C=AU, ST=Some-State, L=root, O=Internet Widgits Pty Ltd, OU=root, CN=root/emailAddress=root
        Validity
            Not Before: May 13 01:21:41 2011 GMT
            Not After : May 12 01:21:41 2012 GMT
        Subject: C=AU, ST=Some-State, O=Internet Widgits Pty Ltd, OU=chain1, CN=chain1/emailAddress=chain1
        Subject Public Key Info:
            Public Key Algorithm: rsaEncryption
            RSA Public Key: (1024 bit)
                Modulus (1024 bit):
                    00:ae:6d:d3:18:3f:b2:63:ab:fb:72:ce:ff:9a:8b:
                    07:4a:52:c5:99:0e:9e:5c:68:ce:82:67:07:7a:27:
                    11:98:a7:fe:3a:68:3f:4e:4b:74:d4:a5:77:15:87:
                    7e:9c:9f:10:82:2f:1c:e3:c0:c7:1e:8b:35:ab:3a:
                    f6:13:44:81:43:22:a7:fa:06:36:9c:55:53:7a:9d:
                    18:9b:a0:f4:93:58:50:2c:cd:ab:ec:32:2f:fa:4f:
                    ff:6e:6a:68:75:15:76:e1:b1:e1:67:f9:13:0a:d0:
                    9b:db:12:b9:fd:dd:51:19:e4:63:d0:d0:56:b5:6a:
                    00:a5:03:68:e7:77:21:b0:f9
                Exponent: 65537 (0x10001)
        X509v3 extensions:
            X509v3 Basic Constraints: 
                CA:TRUE
    Signature Algorithm: sha1WithRSAEncryption
        01:d3:3c:dc:a0:62:14:99:b8:b1:99:cf:0c:4a:50:2b:f7:1e:
        56:f6:de:ce:80:b4:32:bb:0c:5c:45:b7:78:e5:27:ee:90:0c:
        a0:db:ef:32:85:85:08:c6:4a:e6:22:7b:56:61:d5:b4:4e:a1:
        7e:ed:60:c2:bf:bc:51:89:9a:b1:73:c2:e0:bb:3d:4e:fa:6f:
        3e:32:b5:7f:b4:bc:0f:8a:ca:7d:f0:bf:da:b1:12:23:0e:cc:
        57:e5:58:7c:23:38:b1:d8:b2:13:d8:6a:0d:20:bd:e9:66:51:
        2d:e6:57:a1:33:17:69:6d:21:9f:18:37:23:6c:ca:0e:b0:c4:
        47:86
-----BEGIN CERTIFICATE-----
MIICjDCCAfWgAwIBAgIBADANBgkqhkiG9w0BAQUFADCBhzELMAkGA1UEBhMCQVUx
EzARBgNVBAgTClNvbWUtU3RhdGUxDTALBgNVBAcTBHJvb3QxITAfBgNVBAoTGElu
dGVybmV0IFdpZGdpdHMgUHR5IEx0ZDENMAsGA1UECxMEcm9vdDENMAsGA1UEAxME
cm9vdDETMBEGCSqGSIb3DQEJARYEcm9vdDAeFw0xMTA1MTMwMTIxNDFaFw0xMjA1
MTIwMTIxNDFaMH4xCzAJBgNVBAYTAkFVMRMwEQYDVQQIEwpTb21lLVN0YXRlMSEw
HwYDVQQKExhJbnRlcm5ldCBXaWRnaXRzIFB0eSBMdGQxDzANBgNVBAsTBmNoYWlu
MTEPMA0GA1UEAxMGY2hhaW4xMRUwEwYJKoZIhvcNAQkBFgZjaGFpbjEwgZ8wDQYJ
KoZIhvcNAQEBBQADgY0AMIGJAoGBAK5t0xg/smOr+3LO/5qLB0pSxZkOnlxozoJn
B3onEZin/jpoP05LdNSldxWHfpyfEIIvHOPAxx6LNas69hNEgUMip/oGNpxVU3qd
GJug9JNYUCzNq+wyL/pP/25qaHUVduGx4Wf5EwrQm9sSuf3dURnkY9DQVrVqAKUD
aOd3IbD5AgMBAAGjEDAOMAwGA1UdEwQFMAMBAf8wDQYJKoZIhvcNAQEFBQADgYEA
AdM83KBiFJm4sZnPDEpQK/ceVvbezoC0MrsMXEW3eOUn7pAMoNvvMoWFCMZK5iJ7
VmHVtE6hfu1gwr+8UYmasXPC4Ls9TvpvPjK1f7S8D4rKffC/2rESIw7MV+VYfCM4
sdiyE9hqDSC96WZRLeZXoTMXaW0hnxg3I2zKDrDER4Y=
-----END CERTIFICATE-----
