Certificate:
    Data:
        Version: 3 (0x2)
        Serial Number: 57 (0x39)
        Signature Algorithm: sha1WithRSAEncryption
        Issuer: C=KR, ST=KyungGi-Do, O=Samsung Elec., CN=Cert Chain No AIA 2
        Validity
            Not Before: Mar 24 07:21:47 2009 GMT
            Not After : Mar 24 07:21:47 2010 GMT
        Subject: C=KR, ST=KyungGi-Do, O=Samsung Elec., CN=Cert Chain No AIA 3
        Subject Public Key Info:
            Public Key Algorithm: rsaEncryption
            RSA Public Key: (1024 bit)
                Modulus (1024 bit):
                    00:a3:84:57:22:7a:bf:2f:ec:a6:d3:c6:f2:e1:14:
                    92:8e:9d:b1:5a:f2:6f:99:9f:53:08:d1:f9:ef:00:
                    da:a7:2d:c3:64:6f:31:df:4c:49:20:06:88:92:d7:
                    c6:ff:0c:99:49:d0:c5:57:bb:ea:87:4d:06:ac:68:
                    35:6a:3e:23:6c:dd:2f:4e:7c:fc:9c:e6:d0:1d:65:
                    e4:87:79:7e:d9:c0:1e:cd:7b:f5:81:bf:79:8a:d8:
                    6e:94:22:f1:79:a6:dc:52:ea:ed:e6:f7:86:31:5d:
                    b7:39:fc:cd:73:ed:0d:1f:f2:ca:79:ba:25:1e:f4:
                    b9:6c:bc:28:08:a9:46:aa:1d
                Exponent: 65537 (0x10001)
        X509v3 extensions:
            X509v3 Basic Constraints: 
                CA:FALSE
            Netscape Comment: 
                OpenSSL Generated Certificate
            X509v3 Subject Key Identifier: 
                05:E8:B5:E4:89:7E:CD:72:28:E1:08:B5:B2:9F:8E:A2:13:2B:2C:A7
            X509v3 Authority Key Identifier: 
                DirName:/C=KR/ST=KyungGi-Do/O=Samsung Elec./CN=Cert Chain No AIA 1
                serial:38

    Signature Algorithm: sha1WithRSAEncryption
        36:e5:af:2d:c4:bd:c1:16:27:74:f0:0a:a5:12:4c:da:d6:e2:
        60:98:ee:3d:7a:d1:55:a0:ed:57:fd:6b:9b:fc:19:4b:f3:b2:
        41:19:a7:6c:f7:15:63:68:18:09:6d:db:23:f9:e1:2a:d6:75:
        e5:18:46:2b:82:57:4e:1a:f8:03:fa:3d:7c:aa:70:8e:17:25:
        c6:b2:ab:ca:94:90:fd:2a:69:53:f5:11:81:68:06:f8:2d:5d:
        92:39:b4:96:f0:d0:b5:03:c2:15:26:f4:e9:c0:9a:28:39:dd:
        67:ea:a6:9f:27:44:69:2e:95:e0:a1:03:f6:3c:a1:f7:92:f4:
        a2:b8
-----BEGIN CERTIFICATE-----
MIIC7jCCAlegAwIBAgIBOTANBgkqhkiG9w0BAQUFADBYMQswCQYDVQQGEwJLUjET
MBEGA1UECBMKS3l1bmdHaS1EbzEWMBQGA1UEChMNU2Ftc3VuZyBFbGVjLjEcMBoG
A1UEAxMTQ2VydCBDaGFpbiBObyBBSUEgMjAeFw0wOTAzMjQwNzIxNDdaFw0xMDAz
MjQwNzIxNDdaMFgxCzAJBgNVBAYTAktSMRMwEQYDVQQIEwpLeXVuZ0dpLURvMRYw
FAYDVQQKEw1TYW1zdW5nIEVsZWMuMRwwGgYDVQQDExNDZXJ0IENoYWluIE5vIEFJ
QSAzMIGfMA0GCSqGSIb3DQEBAQUAA4GNADCBiQKBgQCjhFcier8v7KbTxvLhFJKO
nbFa8m+Zn1MI0fnvANqnLcNkbzHfTEkgBoiS18b/DJlJ0MVXu+qHTQasaDVqPiNs
3S9OfPyc5tAdZeSHeX7ZwB7Ne/WBv3mK2G6UIvF5ptxS6u3m94YxXbc5/M1z7Q0f
8sp5uiUe9LlsvCgIqUaqHQIDAQABo4HHMIHEMAkGA1UdEwQCMAAwLAYJYIZIAYb4
QgENBB8WHU9wZW5TU0wgR2VuZXJhdGVkIENlcnRpZmljYXRlMB0GA1UdDgQWBBQF
6LXkiX7NcijhCLWyn46iEysspzBqBgNVHSMEYzBhoVykWjBYMQswCQYDVQQGEwJL
UjETMBEGA1UECBMKS3l1bmdHaS1EbzEWMBQGA1UEChMNU2Ftc3VuZyBFbGVjLjEc
MBoGA1UEAxMTQ2VydCBDaGFpbiBObyBBSUEgMYIBODANBgkqhkiG9w0BAQUFAAOB
gQA25a8txL3BFid08AqlEkza1uJgmO49etFVoO1X/Wub/BlL87JBGads9xVjaBgJ
bdsj+eEq1nXlGEYrgldOGvgD+j18qnCOFyXGsqvKlJD9KmlT9RGBaAb4LV2SObSW
8NC1A8IVJvTpwJooOd1n6qafJ0RpLpXgoQP2PKH3kvSiuA==
-----END CERTIFICATE-----
