Certificate:
    Data:
        Version: 3 (0x2)
        Serial Number: 56 (0x38)
        Signature Algorithm: sha1WithRSAEncryption
        Issuer: C=KR, ST=KyungGi-Do, O=Samsung Elec., CN=Cert Chain No AIA 1
        Validity
            Not Before: Mar 24 07:21:45 2009 GMT
            Not After : Mar 24 07:21:45 2010 GMT
        Subject: C=KR, ST=KyungGi-Do, O=Samsung Elec., CN=Cert Chain No AIA 2
        Subject Public Key Info:
            Public Key Algorithm: rsaEncryption
            RSA Public Key: (1024 bit)
                Modulus (1024 bit):
                    00:d3:39:a7:a4:19:61:28:35:4f:f0:9b:f0:b8:8d:
                    55:e9:da:4d:35:9e:3d:6c:c0:30:b1:8b:c0:50:a4:
                    08:6a:d6:e3:fa:f3:f1:cb:9f:14:2e:b6:cb:d2:17:
                    3d:bd:8b:31:8e:c8:95:13:f0:fc:03:42:30:02:98:
                    6c:ee:2a:e9:c1:2a:9f:79:e0:09:35:a7:6e:bd:70:
                    62:ae:09:53:54:a9:62:36:23:b7:15:98:01:c6:c5:
                    52:47:a1:8c:c1:de:7c:4d:86:38:d0:12:24:57:76:
                    99:ba:1f:23:62:20:a5:79:12:a2:9a:90:b8:aa:50:
                    96:59:16:ed:29:74:9d:67:53
                Exponent: 65537 (0x10001)
        X509v3 extensions:
            Authority Information Access: 
                OCSP - URI:http://127.0.0.1:89/0002

    Signature Algorithm: sha1WithRSAEncryption
        29:8e:68:80:e0:f2:ce:29:e5:70:95:67:0d:51:4a:a8:a0:9c:
        9f:4f:2f:3a:83:40:67:6e:01:cb:21:bf:4a:a7:16:3d:df:f8:
        2b:ca:6d:86:92:cc:46:99:99:b5:11:09:4d:25:c7:15:5f:64:
        66:1a:18:69:ce:37:86:96:ab:e6:2e:3d:63:a3:cf:14:91:3b:
        19:fc:79:a7:37:60:eb:51:12:3f:4d:3b:07:6c:0e:ae:69:2c:
        07:4d:6a:ca:5d:97:e5:f0:24:96:7e:fa:f3:83:ec:53:7a:b1:
        53:cb:42:c5:15:b0:04:9f:36:5c:d0:d5:92:49:38:e5:a5:ef:
        91:d2
-----BEGIN CERTIFICATE-----
MIICXjCCAcegAwIBAgIBODANBgkqhkiG9w0BAQUFADBYMQswCQYDVQQGEwJLUjET
MBEGA1UECBMKS3l1bmdHaS1EbzEWMBQGA1UEChMNU2Ftc3VuZyBFbGVjLjEcMBoG
A1UEAxMTQ2VydCBDaGFpbiBObyBBSUEgMTAeFw0wOTAzMjQwNzIxNDVaFw0xMDAz
MjQwNzIxNDVaMFgxCzAJBgNVBAYTAktSMRMwEQYDVQQIEwpLeXVuZ0dpLURvMRYw
FAYDVQQKEw1TYW1zdW5nIEVsZWMuMRwwGgYDVQQDExNDZXJ0IENoYWluIE5vIEFJ
QSAyMIGfMA0GCSqGSIb3DQEBAQUAA4GNADCBiQKBgQDTOaekGWEoNU/wm/C4jVXp
2k01nj1swDCxi8BQpAhq1uP68/HLnxQutsvSFz29izGOyJUT8PwDQjACmGzuKunB
Kp954Ak1p269cGKuCVNUqWI2I7cVmAHGxVJHoYzB3nxNhjjQEiRXdpm6HyNiIKV5
EqKakLiqUJZZFu0pdJ1nUwIDAQABozgwNjA0BggrBgEFBQcBAQQoMCYwJAYIKwYB
BQUHMAGGGGh0dHA6Ly8xMjcuMC4wLjE6ODkvMDAwMjANBgkqhkiG9w0BAQUFAAOB
gQApjmiA4PLOKeVwlWcNUUqooJyfTy86g0BnbgHLIb9KpxY93/grym2GksxGmZm1
EQlNJccVX2RmGhhpzjeGlqvmLj1jo88UkTsZ/HmnN2DrURI/TTsHbA6uaSwHTWrK
XZfl8CSWfvrzg+xTerFTy0LFFbAEnzZc0NWSSTjlpe+R0g==
-----END CERTIFICATE-----
