Certificate:
    Data:
        Version: 3 (0x2)
        Serial Number: 50 (0x32)
        Signature Algorithm: sha1WithRSAEncryption
        Issuer: C=KR, ST=KyungGi-Do, O=Samsung Elec., CN=Cert Chain 4
        Validity
            Not Before: Mar 24 07:09:48 2009 GMT
            Not After : Mar 24 07:09:48 2010 GMT
        Subject: C=KR, ST=KyungGi-Do, O=Samsung Elec., CN=Cert Chain 5
        Subject Public Key Info:
            Public Key Algorithm: rsaEncryption
            RSA Public Key: (1024 bit)
                Modulus (1024 bit):
                    00:af:66:e0:c1:2e:f9:75:ed:0b:27:b3:3a:c9:1d:
                    9f:39:21:f9:14:ee:1c:a4:ee:c3:f0:24:a6:c7:43:
                    dd:f9:03:d0:44:01:e5:19:e9:7b:26:65:3c:3d:3d:
                    9a:b9:69:2a:00:46:0e:cb:20:98:c6:9d:37:7e:0c:
                    90:a6:d7:b0:54:2b:4b:f3:3e:9b:19:33:a1:34:eb:
                    62:e3:b9:bb:fe:cc:ca:3a:d9:fc:71:0a:65:ef:30:
                    f3:f4:1b:55:f0:8b:b9:12:d8:50:25:25:ac:5d:63:
                    9f:d1:c5:21:f2:5a:04:b1:2a:34:a0:12:60:0f:8a:
                    3e:ab:a2:87:e5:5b:d6:48:bf
                Exponent: 65537 (0x10001)
        X509v3 extensions:
            Authority Information Access: 
                OCSP - URI:http://127.0.0.1:89/0002

    Signature Algorithm: sha1WithRSAEncryption
        9f:b3:eb:f1:0b:e7:fa:c3:f0:6a:3b:ba:67:c3:ae:48:51:63:
        2c:7a:b9:c7:cd:d9:92:46:75:40:a5:a2:d6:ba:8e:a1:cb:c7:
        fd:5d:98:f7:2a:e5:0a:06:49:42:8a:e0:09:b1:eb:18:9c:c9:
        1b:e5:d1:4f:a0:0a:a6:14:68:54:7a:b7:9b:f6:44:c5:d8:a1:
        21:99:c9:49:db:64:a5:53:48:5f:b6:d3:ba:fa:73:67:10:10:
        5e:12:45:f8:27:a8:e0:fb:7c:16:73:fb:98:e1:3e:35:f3:de:
        7c:b7:1c:42:2d:d2:9b:8e:03:f5:5f:c7:2f:51:b1:ff:73:45:
        d2:70
-----BEGIN CERTIFICATE-----
MIICUDCCAbmgAwIBAgIBMjANBgkqhkiG9w0BAQUFADBRMQswCQYDVQQGEwJLUjET
MBEGA1UECBMKS3l1bmdHaS1EbzEWMBQGA1UEChMNU2Ftc3VuZyBFbGVjLjEVMBMG
A1UEAxMMQ2VydCBDaGFpbiA0MB4XDTA5MDMyNDA3MDk0OFoXDTEwMDMyNDA3MDk0
OFowUTELMAkGA1UEBhMCS1IxEzARBgNVBAgTCkt5dW5nR2ktRG8xFjAUBgNVBAoT
DVNhbXN1bmcgRWxlYy4xFTATBgNVBAMTDENlcnQgQ2hhaW4gNTCBnzANBgkqhkiG
9w0BAQEFAAOBjQAwgYkCgYEAr2bgwS75de0LJ7M6yR2fOSH5FO4cpO7D8CSmx0Pd
+QPQRAHlGel7JmU8PT2auWkqAEYOyyCYxp03fgyQptewVCtL8z6bGTOhNOti47m7
/szKOtn8cQpl7zDz9BtV8Iu5EthQJSWsXWOf0cUh8loEsSo0oBJgD4o+q6KH5VvW
SL8CAwEAAaM4MDYwNAYIKwYBBQUHAQEEKDAmMCQGCCsGAQUFBzABhhhodHRwOi8v
MTI3LjAuMC4xOjg5LzAwMDIwDQYJKoZIhvcNAQEFBQADgYEAn7Pr8Qvn+sPwaju6
Z8OuSFFjLHq5x83ZkkZ1QKWi1rqOocvH/V2Y9yrlCgZJQorgCbHrGJzJG+XRT6AK
phRoVHq3m/ZExdihIZnJSdtkpVNIX7bTuvpzZxAQXhJF+Ceo4Pt8FnP7mOE+NfPe
fLccQi3Sm44D9V/HL1Gx/3NF0nA=
-----END CERTIFICATE-----
