Certificate:
    Data:
        Version: 3 (0x2)
        Serial Number: 49 (0x31)
        Signature Algorithm: sha1WithRSAEncryption
        Issuer: C=KR, ST=KyungGi-Do, L=Suwon-Si, O=Samsung Elec., CN=CA
        Validity
            Not Before: Mar 24 07:21:43 2009 GMT
            Not After : Mar 24 07:21:43 2010 GMT
        Subject: C=KR, ST=KyungGi-Do, O=Samsung Elec., CN=Cert Chain No AIA 1
        Subject Public Key Info:
            Public Key Algorithm: rsaEncryption
            RSA Public Key: (1024 bit)
                Modulus (1024 bit):
                    00:cd:36:b2:7e:5f:ff:b6:54:58:6e:3c:a8:8c:2c:
                    c0:35:10:df:d8:14:8a:43:ea:22:3c:99:d7:73:11:
                    ab:64:c6:49:95:59:d7:c4:64:d9:a3:a0:f9:68:8b:
                    dd:e2:a1:bb:e1:aa:e8:ea:ae:46:71:f8:5c:35:b3:
                    ac:12:e7:d7:41:3d:45:34:3f:6e:34:8e:41:5f:bc:
                    3e:10:52:33:2e:47:8b:88:d4:e8:cc:5d:7b:66:95:
                    d5:0d:8c:1f:91:e9:85:df:a0:68:40:81:97:91:f0:
                    8a:27:69:06:43:7b:52:ea:72:7e:1b:a2:26:2e:f1:
                    e2:92:c2:af:1b:27:c1:6c:93
                Exponent: 65537 (0x10001)
        X509v3 extensions:
            Authority Information Access: 
                OCSP - URI:http://127.0.0.1:89/0002

    Signature Algorithm: sha1WithRSAEncryption
        06:45:50:fc:2e:79:07:60:e0:bb:b7:f5:31:31:b5:86:e5:22:
        63:6e:69:ee:81:4e:6e:c1:7c:ae:14:8f:78:74:1a:c6:c2:d7:
        23:4f:e4:c7:5c:23:a6:74:0f:49:d3:c5:13:2d:93:b1:80:d9:
        b3:e7:51:ac:44:37:08:56:e3:9a:a9:aa:45:47:a0:39:de:a4:
        cf:f0:1f:06:2c:a1:f4:ff:db:74:00:e6:eb:bf:ed:3c:10:69:
        8a:f5:96:93:71:08:c2:91:92:f4:8f:f5:f8:3c:41:68:6a:b1:
        71:19:a7:45:fc:72:32:6c:49:35:18:ac:fa:9b:f1:47:46:d6:
        b5:50:83:83:e1:cb:6d:88:73:63:bc:b7:19:29:2f:47:ea:78:
        a3:28:77:41:c7:7d:36:d9:69:17:b3:b2:60:04:dc:b4:30:a3:
        86:a4:99:80:0f:5e:0c:70:54:aa:92:bc:1c:4c:70:9e:0a:63:
        73:26:53:8a:31:5f:aa:12:aa:c1:62:88:0a:24:0e:77:44:85:
        12:3c:86:47:81:3a:52:dd:21:ca:58:1d:16:08:02:af:c0:58:
        39:1e:31:52:ed:d5:16:08:2a:2d:3d:40:01:7c:f1:69:13:a0:
        5e:e5:cd:6f:d6:4a:62:68:7d:15:db:a7:c2:fd:b3:ac:34:c9:
        ed:32:a8:2d:3b:6d:c7:aa:0b:91:a5:11:48:d2:25:4d:74:f6:
        d0:82:1a:6a:4c:e8:10:73:8e:d4:11:45:18:f8:62:4f:c5:3b:
        ac:16:0f:ad:6e:21:86:16:f8:49:e7:b9:f9:41:64:5e:dc:0b:
        35:0b:d5:b1:46:84:ae:62:99:69:2f:77:db:73:25:18:f9:24:
        92:ff:05:23:6d:53:82:16:ec:0e:ae:e5:a9:07:10:95:f5:09:
        99:d4:82:8c:e9:2c:bf:88:48:92:3f:74:b6:e6:6d:e1:f5:8c:
        37:d7:81:d0:31:e0:85:e0:5a:97:39:bb:29:e7:97:9f:d5:eb:
        ac:6f:fd:bf:80:24:e5:cc:4e:c8:5f:dc:aa:51:7d:25:6e:7e:
        83:d5:d6:cf:1c:8a:3d:fa:db:e6:c1:b6:1c:ef:34:4f:1e:51:
        1c:2b:ae:c9:b5:36:93:c4:ec:04:0f:78:19:0f:f2:0b:c0:78:
        f2:18:3c:2f:b2:f7:07:58:7b:3b:11:fa:4d:50:e2:95:01:63:
        cb:84:02:95:08:4c:87:38:14:50:23:9e:81:3e:0a:95:a6:ab:
        d0:26:3e:75:cd:d8:4c:f3:5a:40:71:b9:07:41:3b:2f:4f:f1:
        11:fa:e3:dc:07:c9:b5:b1:a9:9c:11:b5:07:cc:40:f0:53:5d:
        8f:8e:21:89:1b:ca:f8:60
-----BEGIN CERTIFICATE-----
MIID4TCCAcmgAwIBAgIBMTANBgkqhkiG9w0BAQUFADBaMQswCQYDVQQGEwJLUjET
MBEGA1UECBMKS3l1bmdHaS1EbzERMA8GA1UEBxMIU3V3b24tU2kxFjAUBgNVBAoT
DVNhbXN1bmcgRWxlYy4xCzAJBgNVBAMTAkNBMB4XDTA5MDMyNDA3MjE0M1oXDTEw
MDMyNDA3MjE0M1owWDELMAkGA1UEBhMCS1IxEzARBgNVBAgTCkt5dW5nR2ktRG8x
FjAUBgNVBAoTDVNhbXN1bmcgRWxlYy4xHDAaBgNVBAMTE0NlcnQgQ2hhaW4gTm8g
QUlBIDEwgZ8wDQYJKoZIhvcNAQEBBQADgY0AMIGJAoGBAM02sn5f/7ZUWG48qIws
wDUQ39gUikPqIjyZ13MRq2TGSZVZ18Rk2aOg+WiL3eKhu+Gq6OquRnH4XDWzrBLn
10E9RTQ/bjSOQV+8PhBSMy5Hi4jU6Mxde2aV1Q2MH5Hphd+gaECBl5HwiidpBkN7
UupyfhuiJi7x4pLCrxsnwWyTAgMBAAGjODA2MDQGCCsGAQUFBwEBBCgwJjAkBggr
BgEFBQcwAYYYaHR0cDovLzEyNy4wLjAuMTo4OS8wMDAyMA0GCSqGSIb3DQEBBQUA
A4ICAQAGRVD8LnkHYOC7t/UxMbWG5SJjbmnugU5uwXyuFI94dBrGwtcjT+THXCOm
dA9J08UTLZOxgNmz51GsRDcIVuOaqapFR6A53qTP8B8GLKH0/9t0AObrv+08EGmK
9ZaTcQjCkZL0j/X4PEFoarFxGadF/HIybEk1GKz6m/FHRta1UIOD4cttiHNjvLcZ
KS9H6nijKHdBx3022WkXs7JgBNy0MKOGpJmAD14McFSqkrwcTHCeCmNzJlOKMV+q
EqrBYogKJA53RIUSPIZHgTpS3SHKWB0WCAKvwFg5HjFS7dUWCCotPUABfPFpE6Be
5c1v1kpiaH0V26fC/bOsNMntMqgtO23HqguRpRFI0iVNdPbQghpqTOgQc47UEUUY
+GJPxTusFg+tbiGGFvhJ57n5QWRe3As1C9WxRoSuYplpL3fbcyUY+SSS/wUjbVOC
FuwOruWpBxCV9QmZ1IKM6Sy/iEiSP3S25m3h9Yw314HQMeCF4FqXObsp55ef1eus
b/2/gCTlzE7IX9yqUX0lbn6D1dbPHIo9+tvmwbYc7zRPHlEcK67JtTaTxOwED3gZ
D/ILwHjyGDwvsvcHWHs7EfpNUOKVAWPLhAKVCEyHOBRQI56BPgqVpqvQJj51zdhM
81pAcbkHQTsvT/ER+uPcB8m1samcEbUHzEDwU12PjiGJG8r4YA==
-----END CERTIFICATE-----
