Certificate:
    Data:
        Version: 3 (0x2)
        Serial Number: 51 (0x33)
        Signature Algorithm: sha1WithRSAEncryption
        Issuer: C=KR, ST=KyungGi-Do, O=Samsung Elec., CN=Cert Chain 5
        Validity
            Not Before: Mar 24 07:09:51 2009 GMT
            Not After : Mar 24 07:09:51 2010 GMT
        Subject: C=KR, ST=KyungGi-Do, O=Samsung Elec., CN=Cert Chain 6
        Subject Public Key Info:
            Public Key Algorithm: rsaEncryption
            RSA Public Key: (1024 bit)
                Modulus (1024 bit):
                    00:ce:12:20:d1:14:60:01:47:aa:4c:66:1b:4c:4f:
                    87:2f:ec:af:fc:11:41:bd:d9:98:7a:b8:e1:dd:59:
                    d0:c0:9e:40:d2:b7:8b:c7:8a:65:ea:0d:0c:36:f1:
                    e6:45:61:dc:6f:08:27:62:d0:78:1b:26:71:d4:fe:
                    0b:9f:ea:86:1b:43:c7:08:d6:c5:eb:5b:11:c9:8b:
                    83:8e:a7:05:0d:5c:6c:ce:ab:70:e0:7d:05:ea:06:
                    39:f9:8c:94:56:56:37:62:b3:18:77:bd:e1:5b:53:
                    a1:07:4d:c7:cc:c6:4c:2e:ef:aa:83:19:b5:ac:e3:
                    72:2b:0d:72:7a:0a:ca:81:6f
                Exponent: 65537 (0x10001)
        X509v3 extensions:
            Authority Information Access: 
                OCSP - URI:http://127.0.0.1:89/0002

    Signature Algorithm: sha1WithRSAEncryption
        47:f3:03:ee:f0:fe:31:bb:01:47:ca:0e:69:65:a2:f8:4a:6f:
        ca:6c:86:80:42:e3:87:49:22:b9:15:f0:da:b6:ca:d9:8b:7f:
        f9:38:c0:72:d0:d1:b3:44:8d:95:5e:ab:e7:ad:37:34:ba:8b:
        2f:11:64:b5:20:09:70:fe:cf:6d:3e:d3:7f:f7:f1:ae:31:74:
        aa:ae:a7:0b:65:4e:e0:0b:80:87:25:d0:0c:bc:db:f5:ac:0c:
        18:8e:4b:c2:42:88:e6:29:4f:2e:6e:df:72:f4:2f:27:39:b8:
        e4:dc:64:1a:d7:c8:f3:f8:42:53:60:53:24:d7:38:75:50:bc:
        d1:30
-----BEGIN CERTIFICATE-----
MIICUDCCAbmgAwIBAgIBMzANBgkqhkiG9w0BAQUFADBRMQswCQYDVQQGEwJLUjET
MBEGA1UECBMKS3l1bmdHaS1EbzEWMBQGA1UEChMNU2Ftc3VuZyBFbGVjLjEVMBMG
A1UEAxMMQ2VydCBDaGFpbiA1MB4XDTA5MDMyNDA3MDk1MVoXDTEwMDMyNDA3MDk1
MVowUTELMAkGA1UEBhMCS1IxEzARBgNVBAgTCkt5dW5nR2ktRG8xFjAUBgNVBAoT
DVNhbXN1bmcgRWxlYy4xFTATBgNVBAMTDENlcnQgQ2hhaW4gNjCBnzANBgkqhkiG
9w0BAQEFAAOBjQAwgYkCgYEAzhIg0RRgAUeqTGYbTE+HL+yv/BFBvdmYerjh3VnQ
wJ5A0reLx4pl6g0MNvHmRWHcbwgnYtB4GyZx1P4Ln+qGG0PHCNbF61sRyYuDjqcF
DVxszqtw4H0F6gY5+YyUVlY3YrMYd73hW1OhB03HzMZMLu+qgxm1rONyKw1yegrK
gW8CAwEAAaM4MDYwNAYIKwYBBQUHAQEEKDAmMCQGCCsGAQUFBzABhhhodHRwOi8v
MTI3LjAuMC4xOjg5LzAwMDIwDQYJKoZIhvcNAQEFBQADgYEAR/MD7vD+MbsBR8oO
aWWi+EpvymyGgELjh0kiuRXw2rbK2Yt/+TjActDRs0SNlV6r5603NLqLLxFktSAJ
cP7PbT7Tf/fxrjF0qq6nC2VO4AuAhyXQDLzb9awMGI5LwkKI5ilPLm7fcvQvJzm4
5NxkGtfI8/hCU2BTJNc4dVC80TA=
-----END CERTIFICATE-----
