Certificate:
    Data:
        Version: 3 (0x2)
        Serial Number: 15 (0xf)
        Signature Algorithm: sha1WithRSAEncryption
        Issuer: C=KR, ST=KyungGi-Do, L=Suwon-Si, O=Samsung Elec., CN=CA
        Validity
            Not Before: Mar 13 03:18:18 2009 GMT
            Not After : Mar 11 03:18:18 2019 GMT
        Subject: C=KR, ST=KyungGi-Do, O=Samsung Elec., CN=First Test Certificate
        Subject Public Key Info:
            Public Key Algorithm: rsaEncryption
            RSA Public Key: (1024 bit)
                Modulus (1024 bit):
                    00:cf:0f:cf:a5:08:18:bf:8b:6c:2c:3c:55:fe:02:
                    43:b7:a8:af:45:a3:4a:28:63:d1:da:26:7a:c2:0d:
                    f8:58:a5:73:c5:db:b8:fb:62:47:ea:17:7b:25:6b:
                    d1:8c:e2:74:96:f4:6b:e5:49:3b:b3:e5:6a:63:36:
                    19:f8:3c:d8:4b:9c:14:9d:2b:6a:71:cc:3a:9f:b9:
                    d5:db:60:8e:44:40:d7:12:53:52:e5:71:41:c8:bf:
                    ec:0d:9c:5b:7c:8e:ac:99:47:65:50:e5:f8:95:3e:
                    8a:3c:99:d9:75:47:73:51:f4:fd:36:46:ed:1a:77:
                    10:ce:1d:01:0c:86:6b:23:ff
                Exponent: 65537 (0x10001)
        X509v3 extensions:
            X509v3 Basic Constraints: 
                CA:FALSE
            Netscape Comment: 
                OpenSSL Generated Certificate
            X509v3 Subject Key Identifier: 
                25:0C:EC:1F:D6:1A:A2:95:AF:C1:A3:DA:EF:B1:F3:BE:62:F3:10:6C
            X509v3 Authority Key Identifier: 
                DirName:/C=KR/ST=KyungGi-Do/L=Suwon-Si/O=Samsung Elec./CN=CA
                serial:F2:5B:40:5B:C2:B7:D0:64

    Signature Algorithm: sha1WithRSAEncryption
        18:fe:74:f1:af:0a:d9:91:ad:b5:7c:f3:01:f8:98:1a:dc:b3:
        66:6b:f4:bc:16:9a:e6:2b:f2:1f:77:23:89:a8:68:e0:8d:e3:
        50:f3:f1:e6:38:f1:59:54:9b:44:0f:72:00:1a:61:71:9c:f0:
        4f:a3:08:9d:17:36:0c:54:82:be:24:04:cb:b5:04:e9:20:c9:
        6e:bc:8f:af:18:d8:2d:ee:cc:a8:8b:e4:1a:35:98:f6:53:72:
        89:4f:05:f8:c3:7b:50:13:ee:cf:9f:d3:eb:a7:7c:4a:e6:89:
        0f:6b:0e:d6:c7:bc:db:04:03:08:25:59:b4:06:5b:ce:a6:db:
        7b:3a:5d:80:e8:ff:66:e1:22:03:54:28:16:0e:89:c8:5b:aa:
        b2:6e:1a:0f:07:53:60:bc:f4:2a:2d:a7:89:f2:b4:58:55:47:
        2e:b1:b2:3c:50:30:6b:0c:12:34:11:5f:54:2a:0a:ab:19:d9:
        36:ae:e2:16:5e:b8:8e:0d:17:d0:42:82:96:4d:fb:36:56:69:
        7b:ce:32:fb:91:a4:02:73:8c:75:7e:de:87:06:52:20:ed:26:
        ff:47:72:f2:f6:01:2e:ec:38:da:0b:5b:be:ec:8e:c6:02:28:
        92:57:28:04:f5:00:87:90:34:e1:81:c5:cc:21:00:6b:4d:d5:
        d5:c3:f6:f1:97:e1:5e:8c:ea:56:2e:5e:ce:9e:de:b9:a6:86:
        60:33:1d:94:76:39:e1:70:9a:d2:b3:9a:f4:47:f8:bd:83:26:
        38:a0:ab:a3:bc:81:df:6b:79:7d:f5:67:8f:5a:e1:a4:67:29:
        58:07:66:70:6a:43:dc:f7:4c:82:54:15:a0:2f:ab:c0:9f:24:
        91:e0:a7:d1:b1:58:bf:43:bf:25:1f:32:fc:98:26:b1:2f:19:
        8f:d8:69:c1:1a:bd:b0:3e:0a:dc:54:c1:27:34:b9:1b:55:93:
        ff:e6:23:ac:af:33:ed:8d:6e:ee:36:18:70:9e:a2:87:b6:e2:
        1d:3a:ee:e8:e2:79:97:15:7c:83:d1:89:71:ab:87:8d:36:a7:
        7d:d8:4c:e2:b6:b7:1f:32:34:a8:75:ca:4f:00:3e:49:b0:5c:
        40:1a:9c:6e:bd:b5:5f:f4:2e:c5:0a:54:b4:89:4a:63:35:ff:
        80:8d:fe:31:e8:2e:92:77:8c:19:1a:2c:b8:95:1e:ef:d5:7d:
        c6:f9:4d:05:b6:f8:dd:55:0c:10:43:6e:7d:47:c8:b0:83:db:
        a3:7b:b4:5a:e3:a9:33:b2:ed:23:83:6a:e1:ce:c6:1c:89:27:
        39:2c:3d:2f:55:49:c8:c5:9d:23:46:fe:88:71:da:ef:2b:25:
        e4:79:92:2b:1d:61:a6:dc
-----BEGIN CERTIFICATE-----
MIIEfjCCAmagAwIBAgIBDzANBgkqhkiG9w0BAQUFADBaMQswCQYDVQQGEwJLUjET
MBEGA1UECBMKS3l1bmdHaS1EbzERMA8GA1UEBxMIU3V3b24tU2kxFjAUBgNVBAoT
DVNhbXN1bmcgRWxlYy4xCzAJBgNVBAMTAkNBMB4XDTA5MDMxMzAzMTgxOFoXDTE5
MDMxMTAzMTgxOFowWzELMAkGA1UEBhMCS1IxEzARBgNVBAgTCkt5dW5nR2ktRG8x
FjAUBgNVBAoTDVNhbXN1bmcgRWxlYy4xHzAdBgNVBAMTFkZpcnN0IFRlc3QgQ2Vy
dGlmaWNhdGUwgZ8wDQYJKoZIhvcNAQEBBQADgY0AMIGJAoGBAM8Pz6UIGL+LbCw8
Vf4CQ7eor0WjSihj0domesIN+Filc8XbuPtiR+oXeyVr0YzidJb0a+VJO7PlamM2
Gfg82EucFJ0ranHMOp+51dtgjkRA1xJTUuVxQci/7A2cW3yOrJlHZVDl+JU+ijyZ
2XVHc1H0/TZG7Rp3EM4dAQyGayP/AgMBAAGjgdEwgc4wCQYDVR0TBAIwADAsBglg
hkgBhvhCAQ0EHxYdT3BlblNTTCBHZW5lcmF0ZWQgQ2VydGlmaWNhdGUwHQYDVR0O
BBYEFCUM7B/WGqKVr8Gj2u+x875i8xBsMHQGA1UdIwRtMGuhXqRcMFoxCzAJBgNV
BAYTAktSMRMwEQYDVQQIEwpLeXVuZ0dpLURvMREwDwYDVQQHEwhTdXdvbi1TaTEW
MBQGA1UEChMNU2Ftc3VuZyBFbGVjLjELMAkGA1UEAxMCQ0GCCQDyW0BbwrfQZDAN
BgkqhkiG9w0BAQUFAAOCAgEAGP508a8K2ZGttXzzAfiYGtyzZmv0vBaa5ivyH3cj
iaho4I3jUPPx5jjxWVSbRA9yABphcZzwT6MInRc2DFSCviQEy7UE6SDJbryPrxjY
Le7MqIvkGjWY9lNyiU8F+MN7UBPuz5/T66d8SuaJD2sO1se82wQDCCVZtAZbzqbb
ezpdgOj/ZuEiA1QoFg6JyFuqsm4aDwdTYLz0Ki2nifK0WFVHLrGyPFAwawwSNBFf
VCoKqxnZNq7iFl64jg0X0EKClk37NlZpe84y+5GkAnOMdX7ehwZSIO0m/0dy8vYB
Luw42gtbvuyOxgIoklcoBPUAh5A04YHFzCEAa03V1cP28ZfhXozqVi5ezp7euaaG
YDMdlHY54XCa0rOa9Ef4vYMmOKCro7yB32t5ffVnj1rhpGcpWAdmcGpD3PdMglQV
oC+rwJ8kkeCn0bFYv0O/JR8y/JgmsS8Zj9hpwRq9sD4K3FTBJzS5G1WT/+YjrK8z
7Y1u7jYYcJ6ih7biHTru6OJ5lxV8g9GJcauHjTanfdhM4ra3HzI0qHXKTwA+SbBc
QBqcbr21X/QuxQpUtIlKYzX/gI3+MegukneMGRosuJUe79V9xvlNBbb43VUMEENu
fUfIsIPbo3u0WuOpM7LtI4Nq4c7GHIknOSw9L1VJyMWdI0b+iHHa7ysl5HmSKx1h
ptw=
-----END CERTIFICATE-----
