Certificate:
    Data:
        Version: 3 (0x2)
        Serial Number: 17 (0x11)
        Signature Algorithm: sha1WithRSAEncryption
        Issuer: C=KR, ST=KyungGi-Do, L=Suwon-Si, O=Samsung Elec., CN=CA
        Validity
            Not Before: Mar 13 03:24:10 2009 GMT
            Not After : Mar 11 03:24:10 2019 GMT
        Subject: C=KR, ST=KyungGi-Do, O=Samsung Elec., CN=First certificate to test OCSP
        Subject Public Key Info:
            Public Key Algorithm: rsaEncryption
            RSA Public Key: (1024 bit)
                Modulus (1024 bit):
                    00:c0:a9:51:63:19:e2:cc:f3:9d:19:d8:75:90:ab:
                    13:40:a3:3f:9d:dc:ef:48:42:0d:00:36:db:ea:68:
                    fd:b9:15:34:a9:af:0f:52:2b:57:2e:03:74:13:41:
                    b4:59:69:7e:f6:e1:54:42:8d:c3:f4:85:2b:ff:07:
                    97:a4:2f:5b:e4:13:be:72:ef:65:e7:59:be:ed:14:
                    71:82:cc:09:03:50:99:66:08:34:1a:41:45:e6:e3:
                    37:98:32:6a:15:d4:32:63:f7:26:6c:5a:ed:45:bd:
                    bb:aa:be:33:4b:9c:cb:b2:03:13:e3:2d:6f:61:57:
                    2a:e8:e8:44:0f:59:ea:e7:bf
                Exponent: 65537 (0x10001)
        X509v3 extensions:
            Authority Information Access: 
                OCSP - URI:http://127.0.0.1:81/0003

    Signature Algorithm: sha1WithRSAEncryption
        5a:7d:5f:25:e5:5a:49:3e:e9:06:4c:f1:7f:83:7d:d4:0d:13:
        36:35:bf:32:92:69:60:1d:ae:2e:ed:89:b3:d4:1e:78:d2:85:
        35:7a:1f:65:30:78:5e:d3:30:60:3d:7d:2c:be:02:6a:f0:22:
        5e:82:86:53:01:a4:b6:1c:9f:d4:79:e9:ec:eb:d8:33:85:fb:
        21:d2:82:77:b9:6d:20:8e:af:82:ff:25:82:27:3b:d7:d9:38:
        31:a3:2b:bc:55:00:28:f6:f9:bf:01:e6:66:0b:b8:a8:ed:30:
        09:52:8d:bf:94:7b:96:d1:93:5b:a3:a4:f1:9f:aa:f4:04:54:
        0b:69:73:af:36:d7:3e:33:2c:29:38:04:9b:65:32:31:fa:17:
        2f:0a:9f:19:05:d8:01:0c:db:13:1e:55:ec:94:38:3f:83:ee:
        50:35:d1:6e:4f:32:c3:3d:d3:39:c8:c5:cc:56:b4:33:2e:8b:
        75:a0:9c:cd:28:e5:42:a1:89:e1:06:90:bd:f3:8e:b5:48:9e:
        1c:dd:56:4d:d9:ec:6e:0b:7b:72:e5:0a:be:7e:33:5a:13:25:
        13:87:4c:9a:27:49:02:6d:28:5b:e7:4d:1b:7c:11:22:10:45:
        b1:57:b7:fc:12:62:69:24:69:ee:67:ce:5b:20:70:6a:22:29:
        f4:a0:90:59:d3:a2:be:7b:43:3a:59:0b:23:d1:2e:ed:51:98:
        87:c5:4d:1c:64:08:f8:ca:af:36:ab:5d:00:ce:15:00:f4:ad:
        34:44:27:8b:72:c6:6d:24:4c:1a:e3:f7:4c:bc:25:a2:a8:e2:
        a8:79:58:57:a7:5d:f0:20:28:d2:ef:84:ff:ee:42:0f:1e:59:
        93:4c:05:45:ff:c1:0d:cb:30:1d:bb:26:5a:4d:24:c0:44:52:
        77:33:17:dd:d1:00:63:1e:9b:4d:ca:28:8b:bb:fd:0d:0b:e3:
        72:26:94:e2:8c:5a:d7:1a:a6:e7:b7:bc:4b:bf:cc:02:2c:d8:
        9b:cb:31:7d:09:4c:15:73:5d:1a:a8:46:10:66:68:80:a9:f3:
        3d:f8:7c:9d:46:3d:ce:ae:75:6f:92:db:34:d3:d7:be:6c:4e:
        76:b6:b6:b7:a2:a8:b9:9e:a9:f1:6f:a6:e5:01:bb:82:13:bd:
        7f:24:81:c3:22:54:58:f0:7e:8d:9a:86:82:00:46:66:33:e4:
        96:98:8a:33:7b:ed:93:9b:cf:68:b5:eb:42:da:6d:50:49:f0:
        14:27:01:f6:57:09:26:7c:61:81:d0:e5:e9:ec:6d:18:eb:97:
        1a:55:cf:1f:d9:20:67:8f:71:bb:0c:98:6d:c0:4b:85:32:c9:
        d3:b7:f3:d0:60:fd:64:01
-----BEGIN CERTIFICATE-----
MIID7DCCAdSgAwIBAgIBETANBgkqhkiG9w0BAQUFADBaMQswCQYDVQQGEwJLUjET
MBEGA1UECBMKS3l1bmdHaS1EbzERMA8GA1UEBxMIU3V3b24tU2kxFjAUBgNVBAoT
DVNhbXN1bmcgRWxlYy4xCzAJBgNVBAMTAkNBMB4XDTA5MDMxMzAzMjQxMFoXDTE5
MDMxMTAzMjQxMFowYzELMAkGA1UEBhMCS1IxEzARBgNVBAgTCkt5dW5nR2ktRG8x
FjAUBgNVBAoTDVNhbXN1bmcgRWxlYy4xJzAlBgNVBAMTHkZpcnN0IGNlcnRpZmlj
YXRlIHRvIHRlc3QgT0NTUDCBnzANBgkqhkiG9w0BAQEFAAOBjQAwgYkCgYEAwKlR
YxnizPOdGdh1kKsTQKM/ndzvSEINADbb6mj9uRU0qa8PUitXLgN0E0G0WWl+9uFU
Qo3D9IUr/weXpC9b5BO+cu9l51m+7RRxgswJA1CZZgg0GkFF5uM3mDJqFdQyY/cm
bFrtRb27qr4zS5zLsgMT4y1vYVcq6OhED1nq578CAwEAAaM4MDYwNAYIKwYBBQUH
AQEEKDAmMCQGCCsGAQUFBzABhhhodHRwOi8vMTI3LjAuMC4xOjgxLzAwMDMwDQYJ
KoZIhvcNAQEFBQADggIBAFp9XyXlWkk+6QZM8X+DfdQNEzY1vzKSaWAdri7tibPU
HnjShTV6H2UweF7TMGA9fSy+AmrwIl6ChlMBpLYcn9R56ezr2DOF+yHSgne5bSCO
r4L/JYInO9fZODGjK7xVACj2+b8B5mYLuKjtMAlSjb+Ue5bRk1ujpPGfqvQEVAtp
c6821z4zLCk4BJtlMjH6Fy8KnxkF2AEM2xMeVeyUOD+D7lA10W5PMsM90znIxcxW
tDMui3WgnM0o5UKhieEGkL3zjrVInhzdVk3Z7G4Le3LlCr5+M1oTJROHTJonSQJt
KFvnTRt8ESIQRbFXt/wSYmkkae5nzlsgcGoiKfSgkFnTor57QzpZCyPRLu1RmIfF
TRxkCPjKrzarXQDOFQD0rTREJ4tyxm0kTBrj90y8JaKo4qh5WFenXfAgKNLvhP/u
Qg8eWZNMBUX/wQ3LMB27JlpNJMBEUnczF93RAGMem03KKIu7/Q0L43ImlOKMWtca
pue3vEu/zAIs2JvLMX0JTBVzXRqoRhBmaICp8z34fJ1GPc6udW+S2zTT175sTna2
treiqLmeqfFvpuUBu4ITvX8kgcMiVFjwfo2ahoIARmYz5JaYijN77ZObz2i160La
bVBJ8BQnAfZXCSZ8YYHQ5ensbRjrlxpVzx/ZIGePcbsMmG3AS4UyydO389Bg/WQB
-----END CERTIFICATE-----
