Certificate:
    Data:
        Version: 3 (0x2)
        Serial Number: 53 (0x35)
        Signature Algorithm: sha1WithRSAEncryption
        Issuer: C=KR, ST=KyungGi-Do, O=Samsung Elec., CN=Cert Chain 7
        Validity
            Not Before: Mar 24 07:09:54 2009 GMT
            Not After : Mar 24 07:09:54 2010 GMT
        Subject: C=KR, ST=KyungGi-Do, O=Samsung Elec., CN=Cert Chain 8
        Subject Public Key Info:
            Public Key Algorithm: rsaEncryption
            RSA Public Key: (1024 bit)
                Modulus (1024 bit):
                    00:e4:e0:c4:dc:86:00:94:69:b1:d5:88:72:c8:c2:
                    52:c0:56:62:0e:f6:80:a2:ef:8e:68:f9:da:d9:85:
                    01:59:04:5e:f7:fc:23:16:dc:ff:2d:52:0a:8c:81:
                    96:fa:24:1d:4b:89:60:2c:25:1a:eb:4e:a6:21:c5:
                    1f:5b:87:d6:65:8c:d7:e1:a2:55:67:7e:01:7c:28:
                    84:d7:23:56:f4:f8:e1:9c:a4:1f:74:fe:6b:c0:14:
                    cc:fd:05:7b:ba:f6:b0:e3:f5:7e:46:ce:70:39:5c:
                    93:43:01:f8:ad:38:a6:0c:71:60:9e:0b:0d:bf:42:
                    6c:d3:9e:21:4c:55:ed:74:73
                Exponent: 65537 (0x10001)
        X509v3 extensions:
            Authority Information Access: 
                OCSP - URI:http://127.0.0.1:89/0002

    Signature Algorithm: sha1WithRSAEncryption
        be:aa:0c:d9:b6:cc:d6:e1:47:ca:cb:6a:36:5e:67:43:f6:8e:
        ab:d9:2a:5c:9d:e0:74:f5:55:70:80:8e:2f:f8:16:4c:2d:4c:
        9c:94:80:6b:6b:c0:7a:e4:0f:f4:60:64:10:ba:93:f5:2a:39:
        0f:5f:06:8a:d4:75:5b:b2:c4:92:25:ad:21:fa:98:75:54:48:
        b5:d6:80:c6:9d:96:af:bf:fd:f4:57:80:cf:03:5c:dc:2b:b3:
        f6:a2:7a:8e:8d:a5:01:92:53:e4:b7:77:99:1b:71:04:97:66:
        57:a1:28:9d:3b:f8:ac:2e:15:18:17:2e:5d:0b:47:49:3b:65:
        88:fc
-----BEGIN CERTIFICATE-----
MIICUDCCAbmgAwIBAgIBNTANBgkqhkiG9w0BAQUFADBRMQswCQYDVQQGEwJLUjET
MBEGA1UECBMKS3l1bmdHaS1EbzEWMBQGA1UEChMNU2Ftc3VuZyBFbGVjLjEVMBMG
A1UEAxMMQ2VydCBDaGFpbiA3MB4XDTA5MDMyNDA3MDk1NFoXDTEwMDMyNDA3MDk1
NFowUTELMAkGA1UEBhMCS1IxEzARBgNVBAgTCkt5dW5nR2ktRG8xFjAUBgNVBAoT
DVNhbXN1bmcgRWxlYy4xFTATBgNVBAMTDENlcnQgQ2hhaW4gODCBnzANBgkqhkiG
9w0BAQEFAAOBjQAwgYkCgYEA5ODE3IYAlGmx1YhyyMJSwFZiDvaAou+OaPna2YUB
WQRe9/wjFtz/LVIKjIGW+iQdS4lgLCUa606mIcUfW4fWZYzX4aJVZ34BfCiE1yNW
9PjhnKQfdP5rwBTM/QV7uvaw4/V+Rs5wOVyTQwH4rTimDHFgngsNv0Js054hTFXt
dHMCAwEAAaM4MDYwNAYIKwYBBQUHAQEEKDAmMCQGCCsGAQUFBzABhhhodHRwOi8v
MTI3LjAuMC4xOjg5LzAwMDIwDQYJKoZIhvcNAQEFBQADgYEAvqoM2bbM1uFHystq
Nl5nQ/aOq9kqXJ3gdPVVcICOL/gWTC1MnJSAa2vAeuQP9GBkELqT9So5D18GitR1
W7LEkiWtIfqYdVRItdaAxp2Wr7/99FeAzwNc3Cuz9qJ6jo2lAZJT5Ld3mRtxBJdm
V6EonTv4rC4VGBcuXQtHSTtliPw=
-----END CERTIFICATE-----
