Certificate:
    Data:
        Version: 3 (0x2)
        Serial Number: 58 (0x3a)
        Signature Algorithm: sha1WithRSAEncryption
        Issuer: C=KR, ST=KyungGi-Do, O=Samsung Elec., CN=Cert Chain No AIA 3
        Validity
            Not Before: Mar 24 07:21:48 2009 GMT
            Not After : Mar 24 07:21:48 2010 GMT
        Subject: C=KR, ST=KyungGi-Do, O=Samsung Elec., CN=Cert Chain No AIA 4
        Subject Public Key Info:
            Public Key Algorithm: rsaEncryption
            RSA Public Key: (1024 bit)
                Modulus (1024 bit):
                    00:cb:8d:d0:6f:74:f7:2a:96:47:5a:f9:e3:d5:72:
                    3a:81:94:c7:0f:e2:a2:9b:11:4e:92:15:61:dc:3f:
                    b8:fd:9f:b8:ae:18:54:25:ca:e0:1a:8f:49:f7:e1:
                    81:64:76:47:5a:b4:bc:9d:11:09:6d:c7:71:03:cd:
                    38:ab:85:5f:69:5a:ed:6b:aa:32:a7:85:b4:75:9a:
                    aa:dc:ec:ee:9d:4e:03:51:e3:8e:a6:89:82:e3:26:
                    13:42:99:87:04:5f:59:58:43:89:32:ed:da:34:e9:
                    b2:ca:33:af:29:eb:20:0b:e7:4a:10:0c:3f:00:94:
                    75:36:c5:f8:4d:4b:a4:88:95
                Exponent: 65537 (0x10001)
        X509v3 extensions:
            Authority Information Access: 
                OCSP - URI:http://127.0.0.1:89/0002

    Signature Algorithm: sha1WithRSAEncryption
        6f:51:b6:28:15:d9:aa:56:70:0d:2a:f0:52:8b:c4:53:47:68:
        78:fe:fe:89:c2:3b:87:23:40:87:04:02:67:74:4d:3c:cc:39:
        48:30:f6:9c:12:74:be:48:26:5a:7c:a1:bf:d0:fa:19:89:63:
        66:fe:44:2d:f5:e5:e8:9f:57:c5:20:fe:f0:10:2f:f0:6d:16:
        ef:a0:2b:db:95:05:72:cb:63:e4:2b:28:38:8f:aa:b9:51:f2:
        88:19:0e:c1:c8:e7:0d:66:b8:13:f2:13:2d:ee:f0:dd:98:56:
        04:af:c6:c8:81:07:ce:44:f5:23:7b:a4:72:32:4d:43:a9:61:
        72:d6
-----BEGIN CERTIFICATE-----
MIICXjCCAcegAwIBAgIBOjANBgkqhkiG9w0BAQUFADBYMQswCQYDVQQGEwJLUjET
MBEGA1UECBMKS3l1bmdHaS1EbzEWMBQGA1UEChMNU2Ftc3VuZyBFbGVjLjEcMBoG
A1UEAxMTQ2VydCBDaGFpbiBObyBBSUEgMzAeFw0wOTAzMjQwNzIxNDhaFw0xMDAz
MjQwNzIxNDhaMFgxCzAJBgNVBAYTAktSMRMwEQYDVQQIEwpLeXVuZ0dpLURvMRYw
FAYDVQQKEw1TYW1zdW5nIEVsZWMuMRwwGgYDVQQDExNDZXJ0IENoYWluIE5vIEFJ
QSA0MIGfMA0GCSqGSIb3DQEBAQUAA4GNADCBiQKBgQDLjdBvdPcqlkda+ePVcjqB
lMcP4qKbEU6SFWHcP7j9n7iuGFQlyuAaj0n34YFkdkdatLydEQltx3EDzTirhV9p
Wu1rqjKnhbR1mqrc7O6dTgNR446miYLjJhNCmYcEX1lYQ4ky7do06bLKM68p6yAL
50oQDD8AlHU2xfhNS6SIlQIDAQABozgwNjA0BggrBgEFBQcBAQQoMCYwJAYIKwYB
BQUHMAGGGGh0dHA6Ly8xMjcuMC4wLjE6ODkvMDAwMjANBgkqhkiG9w0BAQUFAAOB
gQBvUbYoFdmqVnANKvBSi8RTR2h4/v6JwjuHI0CHBAJndE08zDlIMPacEnS+SCZa
fKG/0PoZiWNm/kQt9eXon1fFIP7wEC/wbRbvoCvblQVyy2PkKyg4j6q5UfKIGQ7B
yOcNZrgT8hMt7vDdmFYEr8bIgQfORPUje6RyMk1DqWFy1g==
-----END CERTIFICATE-----
