Certificate:
    Data:
        Version: 3 (0x2)
        Serial Number: 1 (0x1)
        Signature Algorithm: sha1WithRSAEncryption
        Issuer: C=AU, ST=Some-State, O=Internet Widgits Pty Ltd, OU=chain1, CN=chain1/emailAddress=chain1
        Validity
            Not Before: May 13 01:22:02 2011 GMT
            Not After : May 12 01:22:02 2012 GMT
        Subject: C=AU, ST=Some-State, O=Internet Widgits Pty Ltd, OU=chain2, CN=chain2/emailAddress=chain2
        Subject Public Key Info:
            Public Key Algorithm: rsaEncryption
            RSA Public Key: (1024 bit)
                Modulus (1024 bit):
                    00:c4:20:c7:96:1e:c5:33:47:ac:e5:ad:2b:0b:63:
                    ce:e4:44:33:e3:7f:16:ae:f0:d8:7c:b0:96:01:69:
                    38:63:4f:62:7d:97:d6:31:c9:0d:10:24:f5:17:40:
                    13:f0:1a:70:70:5e:3f:05:4d:d9:67:52:ed:41:83:
                    b7:d2:bb:bf:3d:29:98:07:a3:64:1e:2f:1e:13:8c:
                    7a:c1:62:33:66:33:3e:d4:26:5a:59:99:05:8e:67:
                    c7:68:cd:f2:8d:6f:fb:8c:07:63:ab:50:68:03:88:
                    ae:0a:5c:9b:b6:9b:c1:18:7b:ef:cd:c9:f0:5e:44:
                    ab:56:d6:df:48:41:d3:21:51
                Exponent: 65537 (0x10001)
        X509v3 extensions:
            X509v3 Basic Constraints: 
                CA:TRUE
    Signature Algorithm: sha1WithRSAEncryption
        53:5a:c3:bb:48:87:d0:a2:7d:20:68:02:7c:be:18:93:b6:3d:
        83:e4:10:1a:a7:4d:37:24:3e:6c:41:bd:8f:1d:3b:89:08:5a:
        e3:ba:81:9b:e8:fc:0e:fc:3d:0a:70:f2:11:69:59:de:ba:45:
        b4:97:b8:d2:e0:5a:d1:a4:75:bc:68:d5:5f:71:36:78:32:ae:
        d3:31:26:80:f3:f3:a8:54:33:f7:be:a3:0c:2d:d9:9b:b8:33:
        03:be:54:7b:f5:c4:cf:62:9b:25:0c:79:76:12:10:b6:84:1e:
        f1:ff:7c:fe:0a:ac:46:85:26:52:d5:6f:cc:e5:89:e7:ca:8d:
        71:69
-----BEGIN CERTIFICATE-----
MIICgjCCAeugAwIBAgIBATANBgkqhkiG9w0BAQUFADB+MQswCQYDVQQGEwJBVTET
MBEGA1UECBMKU29tZS1TdGF0ZTEhMB8GA1UEChMYSW50ZXJuZXQgV2lkZ2l0cyBQ
dHkgTHRkMQ8wDQYDVQQLEwZjaGFpbjExDzANBgNVBAMTBmNoYWluMTEVMBMGCSqG
SIb3DQEJARYGY2hhaW4xMB4XDTExMDUxMzAxMjIwMloXDTEyMDUxMjAxMjIwMlow
fjELMAkGA1UEBhMCQVUxEzARBgNVBAgTClNvbWUtU3RhdGUxITAfBgNVBAoTGElu
dGVybmV0IFdpZGdpdHMgUHR5IEx0ZDEPMA0GA1UECxMGY2hhaW4yMQ8wDQYDVQQD
EwZjaGFpbjIxFTATBgkqhkiG9w0BCQEWBmNoYWluMjCBnzANBgkqhkiG9w0BAQEF
AAOBjQAwgYkCgYEAxCDHlh7FM0es5a0rC2PO5EQz438WrvDYfLCWAWk4Y09ifZfW
MckNECT1F0AT8BpwcF4/BU3ZZ1LtQYO30ru/PSmYB6NkHi8eE4x6wWIzZjM+1CZa
WZkFjmfHaM3yjW/7jAdjq1BoA4iuClybtpvBGHvvzcnwXkSrVtbfSEHTIVECAwEA
AaMQMA4wDAYDVR0TBAUwAwEB/zANBgkqhkiG9w0BAQUFAAOBgQBTWsO7SIfQon0g
aAJ8vhiTtj2D5BAap003JD5sQb2PHTuJCFrjuoGb6PwO/D0KcPIRaVneukW0l7jS
4FrRpHW8aNVfcTZ4Mq7TMSaA8/OoVDP3vqMMLdmbuDMDvlR79cTPYpslDHl2EhC2
hB7x/3z+CqxGhSZS1W/M5Ynnyo1xaQ==
-----END CERTIFICATE-----
