Certificate:
    Data:
        Version: 3 (0x2)
        Serial Number: 2 (0x2)
        Signature Algorithm: sha1WithRSAEncryption
        Issuer: C=AU, ST=Some-State, O=Internet Widgits Pty Ltd, OU=chain2, CN=chain2/emailAddress=chain2
        Validity
            Not Before: May 13 01:22:13 2011 GMT
            Not After : May 12 01:22:13 2012 GMT
        Subject: C=AU, ST=Some-State, O=Internet Widgits Pty Ltd, OU=chain3, CN=chain3/emailAddress=chain3
        Subject Public Key Info:
            Public Key Algorithm: rsaEncryption
            RSA Public Key: (1024 bit)
                Modulus (1024 bit):
                    00:a2:52:3c:b7:64:b4:05:92:cd:b2:58:0c:81:5c:
                    b4:bd:a4:10:99:17:1a:35:f2:de:f8:86:db:e9:24:
                    a3:01:b1:d6:03:a9:f8:2b:d1:cd:f7:7b:9a:c0:a0:
                    a9:8d:6d:34:94:7c:2c:4c:5c:c0:26:db:46:13:a3:
                    c2:c4:2d:eb:ac:cb:5b:64:09:2c:23:eb:b5:8c:80:
                    12:d6:cd:7b:fa:5f:d9:7a:17:b6:fc:d5:65:fa:d4:
                    94:d9:9a:cf:b5:9e:87:99:f7:3e:32:6c:0d:5c:1f:
                    09:77:a1:4b:ae:c1:47:27:60:a2:7e:f5:94:66:5f:
                    7b:ea:e1:a9:b1:24:5a:40:03
                Exponent: 65537 (0x10001)
        X509v3 extensions:
            X509v3 Basic Constraints: 
                CA:TRUE
    Signature Algorithm: sha1WithRSAEncryption
        80:03:04:99:b2:ea:8c:d8:0a:76:e5:08:fc:2d:72:f9:d5:90:
        8e:ce:3b:c0:ac:d0:57:d1:44:d2:84:cf:83:82:05:70:46:d9:
        e8:07:cf:90:e4:cb:4c:7a:a0:98:d9:e3:be:86:23:71:a2:64:
        36:df:43:54:1d:03:cf:85:5f:e6:43:cc:d3:ca:da:a2:31:2b:
        dd:5a:da:d9:26:38:29:9e:89:04:cc:f9:55:a5:35:77:77:57:
        ab:58:aa:d2:19:39:ad:6b:d2:3f:d9:e0:d7:58:ea:41:79:2a:
        f2:50:ec:3f:89:0a:aa:ec:d6:eb:20:af:5e:52:ff:4d:39:34:
        9c:99
-----BEGIN CERTIFICATE-----
MIICgjCCAeugAwIBAgIBAjANBgkqhkiG9w0BAQUFADB+MQswCQYDVQQGEwJBVTET
MBEGA1UECBMKU29tZS1TdGF0ZTEhMB8GA1UEChMYSW50ZXJuZXQgV2lkZ2l0cyBQ
dHkgTHRkMQ8wDQYDVQQLEwZjaGFpbjIxDzANBgNVBAMTBmNoYWluMjEVMBMGCSqG
SIb3DQEJARYGY2hhaW4yMB4XDTExMDUxMzAxMjIxM1oXDTEyMDUxMjAxMjIxM1ow
fjELMAkGA1UEBhMCQVUxEzARBgNVBAgTClNvbWUtU3RhdGUxITAfBgNVBAoTGElu
dGVybmV0IFdpZGdpdHMgUHR5IEx0ZDEPMA0GA1UECxMGY2hhaW4zMQ8wDQYDVQQD
EwZjaGFpbjMxFTATBgkqhkiG9w0BCQEWBmNoYWluMzCBnzANBgkqhkiG9w0BAQEF
AAOBjQAwgYkCgYEAolI8t2S0BZLNslgMgVy0vaQQmRcaNfLe+Ibb6SSjAbHWA6n4
K9HN93uawKCpjW00lHwsTFzAJttGE6PCxC3rrMtbZAksI+u1jIAS1s17+l/Zehe2
/NVl+tSU2ZrPtZ6Hmfc+MmwNXB8Jd6FLrsFHJ2CifvWUZl976uGpsSRaQAMCAwEA
AaMQMA4wDAYDVR0TBAUwAwEB/zANBgkqhkiG9w0BAQUFAAOBgQCAAwSZsuqM2Ap2
5Qj8LXL51ZCOzjvArNBX0UTShM+DggVwRtnoB8+Q5MtMeqCY2eO+hiNxomQ230NU
HQPPhV/mQ8zTytqiMSvdWtrZJjgpnokEzPlVpTV3d1erWKrSGTmta9I/2eDXWOpB
eSryUOw/iQqq7NbrIK9eUv9NOTScmQ==
-----END CERTIFICATE-----
