Certificate:
    Data:
        Version: 3 (0x2)
        Serial Number: 3 (0x3)
        Signature Algorithm: sha1WithRSAEncryption
        Issuer: C=AU, ST=Some-State, O=Internet Widgits Pty Ltd, OU=chain3, CN=chain3/emailAddress=chain3
        Validity
            Not Before: May 13 01:22:24 2011 GMT
            Not After : May 12 01:22:24 2012 GMT
        Subject: C=AU, ST=Some-State, O=Internet Widgits Pty Ltd, OU=chain4, CN=chain4/emailAddress=chain4
        Subject Public Key Info:
            Public Key Algorithm: rsaEncryption
            RSA Public Key: (1024 bit)
                Modulus (1024 bit):
                    00:b5:4a:07:d9:39:8b:6d:46:b2:91:b7:d0:20:e5:
                    5e:41:8e:59:9c:78:8e:b1:54:8a:2e:fb:6a:f1:51:
                    1c:90:78:3a:b6:98:ae:eb:1b:86:94:36:1c:10:d1:
                    ab:47:e2:87:96:cb:e9:70:db:5e:29:2f:24:e6:c4:
                    a1:de:08:33:81:66:5b:53:8b:54:90:d8:75:7b:ec:
                    c4:62:61:eb:06:5e:0f:e7:a4:8e:3b:53:50:8e:31:
                    f2:42:df:4e:e3:38:8b:46:d5:47:ae:81:3e:31:9e:
                    70:42:b6:08:b7:c0:ed:a7:3f:b9:72:5b:1b:21:4e:
                    0c:77:21:46:92:a0:a5:4e:a5
                Exponent: 65537 (0x10001)
        X509v3 extensions:
            X509v3 Basic Constraints: 
                CA:TRUE
    Signature Algorithm: sha1WithRSAEncryption
        14:49:d0:40:34:42:87:e5:c3:13:4b:42:41:e7:7f:cf:85:66:
        d8:80:62:4f:5a:d6:38:44:25:67:cb:14:bf:3c:6e:ab:97:9f:
        e8:e7:2f:eb:79:ef:97:d2:81:57:e1:a0:e6:10:34:d1:98:4d:
        78:45:9f:98:dd:80:33:b8:64:17:de:3b:f4:e8:99:01:d3:a1:
        56:96:dc:79:5b:75:5a:d1:63:df:4e:9b:4d:6a:65:0d:f4:6d:
        20:ca:51:c0:db:52:7f:4c:b9:32:d5:be:a9:05:ae:b3:19:23:
        5d:38:33:3e:48:66:eb:fb:af:8c:8a:f1:11:61:9d:36:f3:06:
        3e:95
-----BEGIN CERTIFICATE-----
MIICgjCCAeugAwIBAgIBAzANBgkqhkiG9w0BAQUFADB+MQswCQYDVQQGEwJBVTET
MBEGA1UECBMKU29tZS1TdGF0ZTEhMB8GA1UEChMYSW50ZXJuZXQgV2lkZ2l0cyBQ
dHkgTHRkMQ8wDQYDVQQLEwZjaGFpbjMxDzANBgNVBAMTBmNoYWluMzEVMBMGCSqG
SIb3DQEJARYGY2hhaW4zMB4XDTExMDUxMzAxMjIyNFoXDTEyMDUxMjAxMjIyNFow
fjELMAkGA1UEBhMCQVUxEzARBgNVBAgTClNvbWUtU3RhdGUxITAfBgNVBAoTGElu
dGVybmV0IFdpZGdpdHMgUHR5IEx0ZDEPMA0GA1UECxMGY2hhaW40MQ8wDQYDVQQD
EwZjaGFpbjQxFTATBgkqhkiG9w0BCQEWBmNoYWluNDCBnzANBgkqhkiG9w0BAQEF
AAOBjQAwgYkCgYEAtUoH2TmLbUaykbfQIOVeQY5ZnHiOsVSKLvtq8VEckHg6tpiu
6xuGlDYcENGrR+KHlsvpcNteKS8k5sSh3ggzgWZbU4tUkNh1e+zEYmHrBl4P56SO
O1NQjjHyQt9O4ziLRtVHroE+MZ5wQrYIt8Dtpz+5clsbIU4MdyFGkqClTqUCAwEA
AaMQMA4wDAYDVR0TBAUwAwEB/zANBgkqhkiG9w0BAQUFAAOBgQAUSdBANEKH5cMT
S0JB53/PhWbYgGJPWtY4RCVnyxS/PG6rl5/o5y/ree+X0oFX4aDmEDTRmE14RZ+Y
3YAzuGQX3jv06JkB06FWltx5W3Va0WPfTptNamUN9G0gylHA21J/TLky1b6pBa6z
GSNdODM+SGbr+6+MivERYZ028wY+lQ==
-----END CERTIFICATE-----
