Certificate:
    Data:
        Version: 3 (0x2)
        Serial Number: 4 (0x4)
        Signature Algorithm: sha1WithRSAEncryption
        Issuer: C=AU, ST=Some-State, O=Internet Widgits Pty Ltd, OU=chain4, CN=chain4/emailAddress=chain4
        Validity
            Not Before: May 13 01:22:35 2011 GMT
            Not After : May 12 01:22:35 2012 GMT
        Subject: C=AU, ST=Some-State, O=Internet Widgits Pty Ltd, OU=chain5, CN=chain5/emailAddress=chain5
        Subject Public Key Info:
            Public Key Algorithm: rsaEncryption
            RSA Public Key: (1024 bit)
                Modulus (1024 bit):
                    00:f1:32:40:b3:f9:95:60:3a:29:3c:1c:cc:a4:f5:
                    e5:08:19:dd:32:95:a2:62:cf:35:74:c2:85:1b:99:
                    c9:3e:3a:90:d2:b5:9a:be:9a:cf:e9:77:13:26:4c:
                    d2:78:06:3d:19:9b:d7:38:05:66:ca:d2:36:e7:a2:
                    ce:bc:81:aa:31:23:c8:5d:a7:7c:41:25:44:79:99:
                    ac:10:34:16:10:b8:29:a1:5d:96:f8:47:7f:d1:5c:
                    68:b2:85:8a:99:28:65:00:94:d9:e6:df:1c:37:59:
                    db:88:87:5f:b3:e5:a9:88:86:86:30:71:f0:22:24:
                    57:3a:5b:58:04:db:c3:94:0f
                Exponent: 65537 (0x10001)
        X509v3 extensions:
            X509v3 Basic Constraints: 
                CA:TRUE
    Signature Algorithm: sha1WithRSAEncryption
        26:7c:b5:24:c8:8b:49:4b:d1:d6:76:16:db:75:cb:c4:a8:34:
        92:30:e6:e9:8b:7d:70:b7:24:d9:42:e2:b3:16:83:1e:48:1f:
        a2:b5:02:e0:74:3c:f5:bd:b3:03:59:6a:3e:68:6b:bf:3d:38:
        d6:86:fd:ef:ae:3d:2e:55:8a:67:42:02:fa:2c:ef:4e:81:aa:
        06:0a:95:80:90:dc:39:af:7e:b1:0d:c8:78:b1:17:59:49:40:
        5d:b0:d2:86:03:1c:3a:a4:f6:26:b1:23:b2:89:a7:22:f5:02:
        c7:9e:61:82:ee:c0:3d:a6:cc:bf:de:eb:d3:6e:73:ed:a5:85:
        a5:b6
-----BEGIN CERTIFICATE-----
MIICgjCCAeugAwIBAgIBBDANBgkqhkiG9w0BAQUFADB+MQswCQYDVQQGEwJBVTET
MBEGA1UECBMKU29tZS1TdGF0ZTEhMB8GA1UEChMYSW50ZXJuZXQgV2lkZ2l0cyBQ
dHkgTHRkMQ8wDQYDVQQLEwZjaGFpbjQxDzANBgNVBAMTBmNoYWluNDEVMBMGCSqG
SIb3DQEJARYGY2hhaW40MB4XDTExMDUxMzAxMjIzNVoXDTEyMDUxMjAxMjIzNVow
fjELMAkGA1UEBhMCQVUxEzARBgNVBAgTClNvbWUtU3RhdGUxITAfBgNVBAoTGElu
dGVybmV0IFdpZGdpdHMgUHR5IEx0ZDEPMA0GA1UECxMGY2hhaW41MQ8wDQYDVQQD
EwZjaGFpbjUxFTATBgkqhkiG9w0BCQEWBmNoYWluNTCBnzANBgkqhkiG9w0BAQEF
AAOBjQAwgYkCgYEA8TJAs/mVYDopPBzMpPXlCBndMpWiYs81dMKFG5nJPjqQ0rWa
vprP6XcTJkzSeAY9GZvXOAVmytI256LOvIGqMSPIXad8QSVEeZmsEDQWELgpoV2W
+Ed/0VxosoWKmShlAJTZ5t8cN1nbiIdfs+WpiIaGMHHwIiRXOltYBNvDlA8CAwEA
AaMQMA4wDAYDVR0TBAUwAwEB/zANBgkqhkiG9w0BAQUFAAOBgQAmfLUkyItJS9HW
dhbbdcvEqDSSMObpi31wtyTZQuKzFoMeSB+itQLgdDz1vbMDWWo+aGu/PTjWhv3v
rj0uVYpnQgL6LO9OgaoGCpWAkNw5r36xDch4sRdZSUBdsNKGAxw6pPYmsSOyiaci
9QLHnmGC7sA9psy/3uvTbnPtpYWltg==
-----END CERTIFICATE-----
